(i__main__
language
p1
(dp2
S'name'
p3
S'Generic'
p4
sS'html_name'
p5
S'63'
p6
sS'collapse_duplicate_letters'
p7
I1
sS'default_name'
p8
S'New Language'
p9
sS'suffixes_from_textarea'
p10
S''
sS'filename'
p11
S'language_63'
sS'prefixes'
p12
(lsS'collapse_case'
p13
I1
sS'prefixes_from_textarea'
p14
S''
sS'irregulars'
p15
S''
sS'affixes'
p16
(lsS'identifier'
p17
g6
sS'suffixes'
p18
(lsb.