(i__main__
monolith_class
p1
(dp2
S'word_numberer'
p3
(i__main__
word_numberer_class
p4
(dp5
S'highest_index'
p6
I0
sS'identifier'
p7
S'327'
p8
sS'words'
p9
(dsS'html_name'
p10
g8
sbsS'cache'
p11
(i__main__
cache_class
p12
(dp13
S'hashes'
p14
(dsbsS'axes'
p15
(dp16
S'2200'
p17
(i__main__
axis
p18
(dp19
g7
g17
sS'name'
p20
S'Game-Practical'
sg10
g17
sbsS'787'
p21
(i__main__
axis
p22
(dp23
g7
g21
sg20
S'Random Number'
sg10
g21
sbsS'709'
p24
(i__main__
axis
p25
(dp26
g7
g24
sg20
S'Mood'
p27
sg10
g24
sbsS'1503'
p28
(i__main__
axis
p29
(dp30
g7
g28
sg20
S'Abstract-Concrete'
sg10
g28
sbsS'706'
p31
(i__main__
axis
(dp32
g7
g31
sg20
S'Fast pace-Slow Pace'
sg10
g31
sbsS'3121'
p33
(i__main__
axis
(dp34
g7
g33
sg20
S'Safe-Numenous'
sg10
g33
sbsS'712'
p35
(i__main__
axis
p36
(dp37
g7
g35
sg20
S'Inwards-Outwards'
sg10
g35
sbsS'1584'
p38
(i__main__
axis
p39
(dp40
g7
g38
sg20
S'Like-Dislike Change'
sg10
g38
sbsS'703'
p41
(i__main__
axis
(dp42
g7
g41
sg20
S'Liturgical Time'
sg10
g41
sbsS'2191'
p43
(i__main__
axis
p44
(dp45
g7
g43
sg20
S'Waking-Dreaming'
sg10
g43
sbsS'1500'
p46
(i__main__
axis
p47
(dp48
g7
g46
sg20
S'Male-Female'
sg10
g46
sbsS'3006'
p49
(i__main__
axis
(dp50
g7
g49
sg20
S'One-Many'
sg10
g49
sbsS'2194'
p51
(i__main__
axis
p52
(dp53
g7
g51
sg20
S'Future-Past'
sg10
g51
sbsS'2186'
p54
(i__main__
axis
p55
(dp56
g7
g54
sg20
S'Serious-Silly'
sg10
g54
sbsS'3003'
p57
(i__main__
axis
(dp58
g7
g57
sg20
S'World-Otherworld'
sg10
g57
sbsS'2197'
p59
(i__main__
axis
p60
(dp61
g7
g59
sg20
S'Short Read-Long Read'
sg10
g59
sbsS'2749'
p62
(i__main__
axis
p63
(dp64
g7
g62
sg20
S'Easy-Hard'
sg10
g62
sbsS'1985'
p65
(i__main__
axis
(dp66
g7
g65
sg20
S'Favourite Colour'
sg10
g65
sbsS'1506'
p67
(i__main__
axis
p68
(dp69
g7
g67
sg20
S'Thinking-Feeling'
sg10
g67
sbsS'715'
p70
(i__main__
axis
(dp71
g7
g70
sg20
S"God's Hand"
sg10
g70
sbsS'1566'
p72
(i__main__
axis
p73
(dp74
g7
g72
sg20
S'Introversion-Extraversion'
sg10
g72
sbssg10
S'328'
p75
sS'quizzes'
p76
(dp77
S'1815'
p78
(i__main__
quiz
(dp79
S'extra_text_after_result'
p80
S''
sS'extra_text_after_quiz'
p81
S''
sg20
S"Jonathan's Corner"
sS'questions'
p82
(dp83
S'2274'
p84
(i__main__
question
(dp85
S'text'
p86
S'Would you rather tinker with something mechanical now, or talk with someone?'
sg7
g84
sS'responses'
p87
(lp88
(i__main__
response
(dp89
g86
S"I'd rather play with something technical."
sg7
S'2275'
p90
sS'value'
p91
F1
sg10
g90
sba(i__main__
response
(dp92
g86
S"I'd rather have a long talk with someone."
sg7
S'2276'
p93
sg91
F10
sg10
g93
sbasg10
g84
sS'axis'
p94
g68
sbsS'2216'
p95
(i__main__
question
(dp96
g86
S'Which movie do you like more?'
sg7
g95
sg87
(lp97
(i__main__
response
(dp98
g86
S'<u>Star Wars</u>.'
sg7
S'2217'
p99
sg91
F1
sg10
g99
sba(i__main__
response
(dp100
g86
S'<u>The Princess Bride</u>.'
sg7
S'2218'
p101
sg91
F10
sg10
g101
sbasg10
g95
sg94
g52
sbsS'2256'
p102
(i__main__
question
(dp103
g86
S'Would you rather be wide awake now, or have a vivid dream?'
sg7
g102
sg87
(lp104
(i__main__
response
(dp105
g86
S"I'd rather be alert!"
sg7
S'2257'
p106
sg91
F1
sg10
g106
sba(i__main__
response
(dp107
g86
S"I'd rather luxuriate in the world of dreams."
sg7
S'2258'
p108
sg91
F10
sg10
g108
sbasg10
g102
sg94
g44
sbsS'2242'
p109
(i__main__
question
(dp110
g86
S'What would you prefer to read now?'
sg7
g109
sg87
(lp111
(i__main__
response
(dp112
g86
S'Something short and sweet.'
sg7
S'2243'
p113
sg91
F1
sg10
g113
sba(i__main__
response
(dp114
g86
S'Something in-between.'
sg7
S'2244'
p115
sg91
F5
sg10
g115
sba(i__main__
response
(dp116
g86
S'Something enjoyable, something that <em>lasts</em>.'
sg7
S'2247'
p117
sg91
F10
sg10
g117
sbasg10
g109
sg94
g60
sbsS'2279'
p118
(i__main__
question
(dp119
g86
S'Would you rather play a game now, or do something practical?'
sg7
g118
sg87
(lp120
(i__main__
response
(dp121
g86
S'Play a game.'
sg7
S'2280'
p122
sg91
F1
sg10
g122
sba(i__main__
response
(dp123
g86
S'Do something practical.'
sg7
S'2281'
p124
sg91
F10
sg10
g124
sbasg10
g118
sg94
g18
sbsS'2264'
p125
(i__main__
question
(dp126
g86
S'Are you in a serious or a silly mood now?'
sg7
g125
sg87
(lp127
(i__main__
response
(dp128
g86
S"Let's have something serious."
sg7
S'2265'
p129
sg91
F1
sg10
g129
sba(i__main__
response
(dp130
g86
S'Silly, of course!'
sg7
S'2266'
p131
sg91
F10
sg10
g131
sbasg10
g125
sg94
g55
sbssg10
g78
sS'extra_text_before_quiz'
p132
S''
sg7
g78
sS'extra_text_initial_greeting'
p133
S'Welcome to <a href="http://JonathansCorner.com" target="_blank"><u>Jonathan\'s Corner</u></a>!'
sS'results'
p134
(dp135
S'2587'
p136
(i__main__
result
(dp137
S'score'
p138
(i__main__
score
(dp139
g15
(dp140
g84
(lp141
I1
aF10
asg95
(lp142
I1
aF1
asg102
(lp143
I1
aF1
asg109
(lp144
I1
aF5
asg118
(lp145
I1
aF10
asg125
(lp146
I1
aF1
assbsS'description'
p147
S"Would you like to see inside a technologist's mind?"
sg10
g136
sS'color'
p148
S'#5e8575'
sg7
g136
sS'heading'
p149
S'<a href="http://JonathansCorner.com/writings/hacker/" target="_blank">So, You\'ve Hired a Hacker (Revised and Expanded).</a>'
sbsS'2649'
p150
(i__main__
result
(dp151
g138
(i__main__
score
(dp152
g15
(dp153
g84
(lp154
I1
aF1
asg95
(lp155
I1
aF1
asg102
(lp156
I1
aF1
asg109
(lp157
I1
aF5
asg118
(lp158
I1
aF10
asg125
(lp159
I1
aF1
assbsg147
S"It's a lot like a pen-and-paper notebook, but it does things a pen-and-paper notebook can't."
sg10
g150
sg148
S'#ffeedd'
sg7
g150
sg149
S'<a href="http://JonathansHayward.com/MagicNotebook.cgi" target="_blank">The Magic Notebook.</a>'
sbsS'2596'
p160
(i__main__
result
(dp161
g138
(i__main__
score
(dp162
g15
(dp163
g84
(lp164
I1
aF1
asg95
(lp165
I1
aF10
asg102
(lp166
I1
aF10
asg109
(lp167
I1
aF1
asg118
(lp168
I1
aF1
asg125
(lp169
I1
aF1
assbsg147
S'These spectacles seemed to give a gift of seeing.'
sg10
g160
sg148
S'#ea515f'
sg7
g160
sg149
S'<a href="http://JonathansCorner.com/writings/spectacles/" target="_blank">The Spectacles.</a>'
sbsS'2584'
p170
(i__main__
result
(dp171
g138
(i__main__
score
(dp172
g15
(dp173
g84
(lp174
I1
aF10
asg95
(lp175
I1
aF1
asg102
(lp176
I1
aF1
asg109
(lp177
I1
aF1
asg118
(lp178
I1
aF1
asg125
(lp179
I1
aF10
assbsg147
S"Its the next wave of effective worship. Or at least, that's what its champions say..."
sg10
g170
sg148
S'pink'
p180
sg7
g170
sg149
S'<a href="http://JonathansCorner.com/writings/amusement/" target="_blank">Religion Within the Bounds of Amusement.</a>'
sbsS'2304'
p181
(i__main__
result
(dp182
g138
(i__main__
score
(dp183
g15
(dp184
g84
(lp185
I1
aF1
asg95
(lp186
I1
aF1
asg102
(lp187
I1
aF1
asg109
(lp188
I1
aF1
asg118
(lp189
I1
aF1
asg125
(lp190
I1
aF10
assbsg147
S'As I look back on my programming experience, the most important things were not writing low-level serialization routines, or stunning optimizations that drew on deep theory. All I really needed to learn about programming, I learned from Java.'
sg10
g181
sg148
S'tan'
p191
sg7
g181
sg149
S"<a href='http://JonathansCorner.com/writings/java/' target='_blank'>All I Really Needed to Know about Programming, I Learned from Java.</a>"
sbsS'2498'
p192
(i__main__
result
(dp193
g138
(i__main__
score
(dp194
g15
(dp195
g84
(lp196
I1
aF1
asg95
(lp197
I1
aF10
asg102
(lp198
I1
aF1
asg109
(lp199
I1
aF1
asg118
(lp200
I1
aF10
asg125
(lp201
I1
aF1
assbsg147
S'I devised this method to help me pray. If you don\'t want to learn the technique, look at <a href="http://www.powells.com/cgi-bin/partner?partner_id=24934&cgi=product&isbn=0881410128" target="_blank"><u>A Manual of Eastern Orthodox Prayers</u></a>, which I\'m also learning to use.'
sg10
g192
sg148
S'#ecf0d8'
sg7
g192
sg149
S'<a href="http://JonathansCorner.com/writings/memory/" target="_blank">Memory and Prayer.</a>'
sbsS'2635'
p202
(i__main__
result
(dp203
g138
(i__main__
score
(dp204
g15
(dp205
g84
(lp206
I1
aF10
asg95
(lp207
I1
aF1
asg102
(lp208
I1
aF10
asg109
(lp209
I1
aF10
asg118
(lp210
I1
aF1
asg125
(lp211
I1
aF10
assbsg147
S'It was written to be a generic board game. And failed at that goal.'
sg10
g202
sg148
S'#aabbaa'
sg7
g202
sg149
S'<a href="http://JonathansCorner.com/etc/generica/" target="_blank">Generica!</a>'
sbsS'2422'
p212
(i__main__
result
(dp213
g138
(i__main__
score
(dp214
g15
(dp215
g84
(lp216
I1
aF1
asg95
(lp217
I1
aF1
asg102
(lp218
I1
aF1
asg109
(lp219
I1
aF10
asg118
(lp220
I1
aF1
asg125
(lp221
I1
aF1
assbsg147
S'<strong>Christmas</strong>, <em>n</em>. An annual holiday celebrating the chief coming of Western civilisation: Money.'
sg10
g212
sg148
S'grey'
p222
sg7
g212
sg149
S'<a href="http://JonathansCorner.com/writings/hud/">Hayward\'s Unabridged Dictionary.</a>'
sbsS'2630'
p223
(i__main__
result
(dp224
g138
(i__main__
score
(dp225
g15
(dp226
g84
(lp227
I1
aF1
asg95
(lp228
I1
aF1
asg102
(lp229
I1
aF1
asg109
(lp230
I1
aF1
asg118
(lp231
I1
aF1
asg125
(lp232
I1
aF10
assbsg147
S"It's not hard. (If you can avoid thinking in three dimensions.)"
sg10
g223
sg148
S'lightblue'
p233
sg7
g223
sg149
S'<a href="http://JonathansCorner.com/etc/maze/" target="_blank">A Four Dimensional Maze.</a>'
sbsS'2646'
p234
(i__main__
result
(dp235
g138
(i__main__
score
(dp236
g15
(dp237
g84
(lp238
I1
aF10
asg95
(lp239
I1
aF10
asg102
(lp240
I1
aF1
asg109
(lp241
I1
aF1
asg118
(lp242
I1
aF10
asg125
(lp243
I1
aF1
assbsg147
S'What have you not been told about the Good Shepherd?'
sg10
g234
sg148
S'#b26c4f'
sg7
g234
sg149
S'<a href="http://JonathansCorner.com/etc/good_shepherd/" target="_blank">The Good Shepherd.</a>'
sbsS'2436'
p244
(i__main__
result
(dp245
g138
(i__main__
score
(dp246
g15
(dp247
g84
(lp248
I1
aF10
asg95
(lp249
I1
aF10
asg102
(lp250
I1
aF10
asg109
(lp251
I1
aF1
asg118
(lp252
I1
aF1
asg125
(lp253
I1
aF1
assbsg147
S'Some of the biggest lessons in life are simple...'
sg10
g244
sg148
S'lavender'
p254
sg7
g244
sg149
S'<a href="http://JonathansCorner.com/writings/learned/">I Learned It All From Jesus.</a>'
sbsS'2507'
p255
(i__main__
result
(dp256
g138
(i__main__
score
(dp257
g15
(dp258
g84
(lp259
I1
aF10
asg95
(lp260
I1
aF10
asg102
(lp261
I1
aF1
asg109
(lp262
I1
aF1
asg118
(lp263
I1
aF10
asg125
(lp264
I1
aF1
assbsg147
S'Would you like to be a better mentor?'
sg10
g255
sg148
S'#bd8bdb'
sg7
g255
sg149
S'<a href="http://JonathansCorner.com/writings/mentorship/">On Mentorship.</a>'
sbsS'2298'
p265
(i__main__
result
(dp266
g138
(i__main__
score
(dp267
g15
(dp268
g84
(lp269
I1
aF1
asg95
(lp270
I1
aF1
asg102
(lp271
I1
aF1
asg109
(lp272
I1
aF10
asg118
(lp273
I1
aF10
asg125
(lp274
I1
aF1
assbsg147
S'Classical mnemotechnics can do some fairly impressive things. They are also limited, especially in dealing with abstractions. Here are some memory techniques used by the author to grapple with theology in his studies at Cambridge University.'
sg10
g265
sg148
S'silver'
p275
sg7
g265
sg149
S"<a href='http://JonathansCorner.com/writings/abstract/' target='_blank'>An Abstract Art of Memory.</a>"
sbsS'2474'
p276
(i__main__
result
(dp277
g138
(i__main__
score
(dp278
g15
(dp279
g84
(lp280
I1
aF1
asg95
(lp281
I1
aF1
asg102
(lp282
I1
aF1
asg109
(lp283
I1
aF1
asg118
(lp284
I1
aF1
asg125
(lp285
I1
aF10
assbsg147
S'There is a considerable buzz among the scholarly community over the discovery of a nearly complete Greek manuscript of the letter to the Romans.'
sg10
g276
sg148
S'#909090'
sg7
g276
sg149
S'<a href="http://JonathansCorner.com/writings/greek/" target="_blank">Inclusive Language Greek Manuscript Discovered!</a>'
sbsS'2366'
p286
(i__main__
result
(dp287
g138
(i__main__
score
(dp288
g15
(dp289
g84
(lp290
I1
aF10
asg95
(lp291
I1
aF1
asg102
(lp292
I1
aF10
asg109
(lp293
I1
aF1
asg118
(lp294
I1
aF1
asg125
(lp295
I1
aF1
assbsg147
S'Heaven has a way of haunting us.'
sg10
g286
sg148
S'#b67aff'
sg7
g286
sg149
S'<a href="http://JonathansCorner.com/writings/glimpse/" target="_blank">A Glimpse Through a Crystal.</a>'
sbsS'2654'
p296
(i__main__
result
(dp297
g138
(i__main__
score
(dp298
g15
(dp299
g84
(lp300
I1
aF1
asg95
(lp301
I1
aF1
asg102
(lp302
I1
aF1
asg109
(lp303
I1
aF1
asg118
(lp304
I1
aF1
asg125
(lp305
I1
aF10
assbsg147
S'Just something mindless to play with.'
sg10
g296
sg148
S'lightgreen'
p306
sg7
g296
sg149
S'<a href="http://JonathansCorner.com/etc/patterns/" target="_blank">Patterns!</a>'
sbsS'2618'
p307
(i__main__
result
(dp308
g138
(i__main__
score
(dp309
g15
(dp310
g84
(lp311
I1
aF10
asg95
(lp312
I1
aF10
asg102
(lp313
I1
aF10
asg109
(lp314
I1
aF10
asg118
(lp315
I1
aF1
asg125
(lp316
I1
aF10
assbsg147
S"The object of the game is to catch a furball. Or at least, that's what it appears to be. Gather three or four friends, and play it like a board game."
sg10
g307
sg148
S'navajowhite'
p317
sg7
g307
sg149
S'<a href="http://JonathanHayward.com/furball.cgi" target="_blank">Catch the Furball!</a>'
sbsS'2326'
p318
(i__main__
result
(dp319
g138
(i__main__
score
(dp320
g15
(dp321
g84
(lp322
I1
aF10
asg95
(lp323
I1
aF10
asg102
(lp324
I1
aF10
asg109
(lp325
I1
aF5
asg118
(lp326
I1
aF1
asg125
(lp327
I1
aF10
assbsg147
S'    This is a piece of wisdom literature about a man who has been searching all his life for the <u>Commentary on the Old and New Testaments, in One Volume, Containing a Careful Analysis of All Cultural Issues Needful to Understand the Bible as Did Its First Readers</u>... and why he is so very unhappy when he finds what he desires.'
sg10
g318
sg148
S'#ffeedd'
sg7
g318
sg149
S"<a href='http://JonathansCorner.com/writings/commentary/' target='_blank'>The Commentary.</a>"
sbsS'2323'
p328
(i__main__
result
(dp329
g138
(i__main__
score
(dp330
g15
(dp331
g84
(lp332
I1
aF1
asg95
(lp333
I1
aF10
asg102
(lp334
I1
aF10
asg109
(lp335
I1
aF1
asg118
(lp336
I1
aF1
asg125
(lp337
I1
aF10
assbsg147
S'What is the worship of one person worshipping?'
sg10
g328
sg148
S'#ff4400'
sg7
g328
sg149
S"<a href='http://JonathansCorner.com/writings/koans' target='_blank'>Christian Koans.</a>"
sbsS'2568'
p338
(i__main__
result
(dp339
g138
(i__main__
score
(dp340
g15
(dp341
g84
(lp342
I1
aF1
asg95
(lp343
I1
aF10
asg102
(lp344
I1
aF10
asg109
(lp345
I1
aF1
asg118
(lp346
I1
aF1
asg125
(lp347
I1
aF1
assbsg147
S'It was hidden so I could barely see it...'
sg10
g338
sg148
S'darkgrey'
p348
sg7
g338
sg149
S'<a href="http://JonathansCorner.com/writings/monastery/" target="_blank">The Monastery.</a>'
sbsS'2346'
p349
(i__main__
result
(dp350
g138
(i__main__
score
(dp351
g15
(dp352
g84
(lp353
I1
aF10
asg95
(lp354
I1
aF10
asg102
(lp355
I1
aF10
asg109
(lp356
I1
aF5
asg118
(lp357
I1
aF10
asg125
(lp358
I1
aF1
assbsg147
S'What does the author of <em>The Da Vinci Code</em> not want you to know?'
sg10
g349
sg148
S'#cde37e'
sg7
g349
sg149
S'<a href="http://JonathansCorner.com/writings/grail/" target="_blank"><em>The Da Vinci Code</em> and the Holy Grail.</a>'
sbsS'2599'
p359
(i__main__
result
(dp360
g138
(i__main__
score
(dp361
g15
(dp362
g84
(lp363
I1
aF1
asg95
(lp364
I1
aF1
asg102
(lp365
I1
aF1
asg109
(lp366
I1
aF5
asg118
(lp367
I1
aF10
asg125
(lp368
I1
aF10
assbsg147
S"Sutodoreh writes to a pupil confused by something strange he's discovered."
sg10
g359
sg148
S'#f5d557'
sg7
g359
sg149
S'<a href="http://JonathansCorner.com/writings/history/" target="_blank">A Strange Arch&aelig;ological Find.</a>'
sbsS'2335'
p369
(i__main__
result
(dp370
g138
(i__main__
score
(dp371
g15
(dp372
g84
(lp373
I1
aF10
asg95
(lp374
I1
aF10
asg102
(lp375
I1
aF10
asg109
(lp376
I1
aF10
asg118
(lp377
I1
aF10
asg125
(lp378
I1
aF1
assbsg147
S'What is home? To begin with, let us call it a place of deep connection.'
sg10
g369
sg148
S'#ffccaa'
sg7
g369
sg149
S'<a href="http://JonathansCorner.com/writings/cord/">A Cord of Seven Strands.</a>'
sbsS'2491'
p379
(i__main__
result
(dp380
g138
(i__main__
score
(dp381
g15
(dp382
g84
(lp383
I1
aF1
asg95
(lp384
I1
aF1
asg102
(lp385
I1
aF10
asg109
(lp386
I1
aF1
asg118
(lp387
I1
aF1
asg125
(lp388
I1
aF10
assbsg147
S"Don't even <em>bother</em> trying to figure out the score."
sg10
g379
sg148
S'#b0b0ff'
sg7
g379
sg149
S'<a href="http://JonathansCorner.com/tms/ball/" target="_blank">Janra Ball: The Headache!</a>'
sbsS'2349'
p389
(i__main__
result
(dp390
g138
(i__main__
score
(dp391
g15
(dp392
g84
(lp393
I1
aF10
asg95
(lp394
I1
aF10
asg102
(lp395
I1
aF10
asg109
(lp396
I1
aF10
asg118
(lp397
I1
aF1
asg125
(lp398
I1
aF10
assbsg147
S'It is a flowing sequence of dreamlike images; you move about as if in a dream...'
sg10
g389
sg148
S'#9ba5cc'
sg7
g389
sg149
S'<a href="http://JonathansCorner.com/writings/dream/">A Dream of Light.</a>'
sbsS'2573'
p399
(i__main__
result
(dp400
g138
(i__main__
score
(dp401
g15
(dp402
g84
(lp403
I1
aF10
asg95
(lp404
I1
aF10
asg102
(lp405
I1
aF10
asg109
(lp406
I1
aF1
asg118
(lp407
I1
aF10
asg125
(lp408
I1
aF1
assbsg147
S'What would you do, if you were asked to draw a picture of Satan?'
sg10
g399
sg148
S'#bb3300'
sg7
g399
sg149
S'<a href="http://JonathansCorner.com/writings/evil/" target="_blank">A Picture of Evil.</a>'
sbsS'2615'
p409
(i__main__
result
(dp410
g138
(i__main__
score
(dp411
g15
(dp412
g84
(lp413
I1
aF10
asg95
(lp414
I1
aF10
asg102
(lp415
I1
aF10
asg109
(lp416
I1
aF1
asg118
(lp417
I1
aF1
asg125
(lp418
I1
aF1
assbsg147
S'Can a wound be healed?'
sg10
g409
sg148
S'#ea9dbb'
sg7
g409
sg149
S'<a href="http://JonathansCorner.com/writings/unashamed/" target="_blank">Unashamed.</a>'
sbsS'2301'
p419
(i__main__
result
(dp420
g138
(i__main__
score
(dp421
g15
(dp422
g84
(lp423
I1
aF10
asg95
(lp424
I1
aF1
asg102
(lp425
I1
aF1
asg109
(lp426
I1
aF1
asg118
(lp427
I1
aF10
asg125
(lp428
I1
aF1
assbsg147
S"Have you heard the tale of the Boy who Cried Wolf? Here's an updated form."
sg10
g419
sg148
S'#cee11b'
sg7
g419
sg149
S"<a href='http://JonathansCorner.com/writings/admin/' target='_blank'>The Administrator Who Cried, ''Important!''</a>"
sbsS'2359'
p429
(i__main__
result
(dp430
g138
(i__main__
score
(dp431
g15
(dp432
g84
(lp433
I1
aF1
asg95
(lp434
I1
aF1
asg102
(lp435
I1
aF1
asg109
(lp436
I1
aF10
asg118
(lp437
I1
aF1
asg125
(lp438
I1
aF1
assbsg147
S"What would happen if a medieval suddenly found himself transported to our future? Well, he <em>could</em> be lost, but there's more to it than that."
sg10
g429
sg148
S'#b32ae6'
sg7
g429
sg149
S'<a href="http://JonathansCorner.com/writings/firestorm/" target="_blank">Firestorm 2034.</a>'
sbsS'2606'
p439
(i__main__
result
(dp440
g138
(i__main__
score
(dp441
g15
(dp442
g84
(lp443
I1
aF10
asg95
(lp444
I1
aF1
asg102
(lp445
I1
aF1
asg109
(lp446
I1
aF1
asg118
(lp447
I1
aF10
asg125
(lp448
I1
aF1
assbsg147
S'What was it that disturbed me most?'
sg10
g439
sg148
S'#008040'
sg7
g439
sg149
S'<a href="http://JonathansCorner.com/writings/picture/" target="_blank">A Strange Picture.</a>'
sbsS'3097'
p449
(i__main__
result
(dp450
g138
(i__main__
score
(dp451
g15
(dp452
g84
(lp453
I1
aF1
asg95
(lp454
I1
aF1
asg102
(lp455
I1
aF1
asg109
(lp456
I1
aF1
asg118
(lp457
I1
aF1
asg125
(lp458
I1
aF1
assbsg147
S"Is it possible not to be stressed? You can never avoid stress completely, but there's a way to make it much less of a problem. It's a pity more people don't know the secret."
sg10
g449
sg148
S'#79a4e3'
sg7
g449
sg149
S'<a href="http://JonathansCorner.com/writings/stress/" target="_blank">Not Stressed?</a>'
sbsS'2369'
p459
(i__main__
result
(dp460
g138
(i__main__
score
(dp461
g15
(dp462
g84
(lp463
I1
aF1
asg95
(lp464
I1
aF1
asg102
(lp465
I1
aF1
asg109
(lp466
I1
aF5
asg118
(lp467
I1
aF10
asg125
(lp468
I1
aF1
assbsg147
S'You\'ve read <a href="http://www.powells.com/cgi-bin/partner?partner_id=24934&cgi=product&isbn=0394800796" target="_blank"><u>How the Grinch Stole Christmas</u></a>, by trying to steal all the shiny presents. What if the Grinch tried another approach?'
sg10
g459
sg148
S'#ff4444'
sg7
g459
sg149
S'<a href="http://JonathansCorner.com/writings/grinch/" target="_blank">The Grinch who Stole Christmas.</a>'
sbsS'2661'
p469
(i__main__
result
(dp470
g138
(i__main__
score
(dp471
g15
(dp472
g84
(lp473
I1
aF1
asg95
(lp474
I1
aF1
asg102
(lp475
I1
aF1
asg109
(lp476
I1
aF10
asg118
(lp477
I1
aF10
asg125
(lp478
I1
aF1
assbsg147
S'This is meant to let you access the Bible powerfully and quickly.'
sg10
g469
sg148
S'#93a2de'
sg7
g469
sg149
S'<a href="http://JonathanHayward.com/powerbible.cgi" target="_blank">The Powered Access Bible.</a>'
sbsS'2352'
p479
(i__main__
result
(dp480
g138
(i__main__
score
(dp481
g15
(dp482
g84
(lp483
I1
aF10
asg95
(lp484
I1
aF10
asg102
(lp485
I1
aF10
asg109
(lp486
I1
aF10
asg118
(lp487
I1
aF1
asg125
(lp488
I1
aF1
assbsg147
S"These are the cultures of a role-playing game, forged out of the author's experience in the United States, Malaysia, and Europe."
sg10
g479
sg148
S'#b38cff'
sg7
g479
sg149
S'<a href="http://JonathansCorner.com/tms/cultures/" target="_blank">Espiriticthus.</a>'
sbsS'2685'
p489
(i__main__
result
(dp490
g138
(i__main__
score
(dp491
g15
(dp492
g84
(lp493
I1
aF10
asg95
(lp494
I1
aF1
asg102
(lp495
I1
aF1
asg109
(lp496
I1
aF1
asg118
(lp497
I1
aF1
asg125
(lp498
I1
aF10
assbsg147
S"If you could sum up the entire web in a single page, what would it be? Here's your answer."
sg10
g489
sg148
S'#8a68aa'
sg7
g489
sg149
S'<a href="http://JonathansCorner.com/etc/quint/" target="_blank">The Quintessential Web Page.</a>'
sbsS'2621'
p499
(i__main__
result
(dp500
g138
(i__main__
score
(dp501
g15
(dp502
g84
(lp503
I1
aF10
asg95
(lp504
I1
aF10
asg102
(lp505
I1
aF1
asg109
(lp506
I1
aF5
asg118
(lp507
I1
aF10
asg125
(lp508
I1
aF1
assbsg147
S"A painting of Christ's passion."
sg10
g499
sg148
S'#603000'
sg7
g499
sg149
S'<a href="http://JonathansCorner.com/writings/eloi/" target="_blank">Eloi, Eloi, Lema Sabachthane?</a>'
sbsS'2510'
p509
(i__main__
result
(dp510
g138
(i__main__
score
(dp511
g15
(dp512
g84
(lp513
I1
aF1
asg95
(lp514
I1
aF1
asg102
(lp515
I1
aF1
asg109
(lp516
I1
aF5
asg118
(lp517
I1
aF1
asg125
(lp518
I1
aF1
assbsg147
S"Where was he from? It's true to say that he was from his country and false to say that he came from this world."
sg10
g509
sg148
g275
sg7
g509
sg149
S'<a href="http://JonathansCorner.com/writings/gospel/" target="_blank">The Metacultural Gospel</a>'
sbsS'2682'
p519
(i__main__
result
(dp520
g138
(i__main__
score
(dp521
g15
(dp522
g84
(lp523
I1
aF1
asg95
(lp524
I1
aF1
asg102
(lp525
I1
aF1
asg109
(lp526
I1
aF1
asg118
(lp527
I1
aF1
asg125
(lp528
I1
aF10
assbsg147
S"There's a surprisingly simple way to fix all the problems with a television."
sg10
g519
sg148
S'#800000'
sg7
g519
sg149
S'<a href="http://JonathansCorner.com/etc/tv/" target="_blank">Procedures for the Repair and Adjustment of Televisions.</a>'
sbsS'2513'
p529
(i__main__
result
(dp530
g138
(i__main__
score
(dp531
g15
(dp532
g84
(lp533
I1
aF1
asg95
(lp534
I1
aF1
asg102
(lp535
I1
aF1
asg109
(lp536
I1
aF1
asg118
(lp537
I1
aF1
asg125
(lp538
I1
aF10
assbsg147
S'He is the model of the modern baccaulaureate...'
sg10
g529
sg148
S'#77e55c'
sg7
g529
sg149
S'<a href="http://JonathansCorner.com/writings/bac/" target="_blank">The Modern Baccaulaureate!</a>'
sbssS'extra_text_before_result'
p539
S''
sbsS'1976'
p540
(i__main__
quiz
(dp541
g80
S''
sg81
S''
sg20
S'For Kids!'
sg82
(dp542
S'2046'
p543
(i__main__
question
(dp544
g86
S'What would you like to be?'
sg7
g543
sg87
(lp545
(i__main__
response
(dp546
g86
S'A caveman.'
sg7
S'2047'
p547
sg91
F10
sg10
g547
sba(i__main__
response
(dp548
g86
S'A firefighter.'
sg7
S'2050'
p549
sg91
F8
sg10
g549
sba(i__main__
response
(dp550
g86
S'A construction worker.'
sg7
S'2053'
p551
sg91
F6
sg10
g551
sba(i__main__
response
(dp552
g86
S'A doctor.'
sg7
S'2056'
p553
sg91
F4
sg10
g553
sba(i__main__
response
(dp554
g86
S'Just like Mum.'
sg7
S'2059'
p555
sg91
F2
sg10
g555
sba(i__main__
response
(dp556
g86
S'A mermaid!'
sg7
S'2062'
p557
sg91
F0
sg10
g557
sbasg10
g543
sg94
g47
sbsS'2069'
p558
(i__main__
question
(dp559
g86
S'What would you rather do?'
sg7
g558
sg87
(lp560
(i__main__
response
(dp561
g86
S'Play cars.'
sg7
S'2070'
p562
sg91
F10
sg10
g562
sba(i__main__
response
(dp563
g86
S'Build something with Legos.'
sg7
S'2071'
p564
sg91
F1
sg10
g564
sbasg10
g558
sg94
g29
sbsS'2021'
p565
(i__main__
question
(dp566
g86
S'Which would you rather have as a pet?'
sg7
g565
sg87
(lp567
(i__main__
response
(dp568
g86
S'A lion.'
sg7
S'2022'
p569
sg91
F10
sg10
g569
sba(i__main__
response
(dp570
g86
S'A bear.'
sg7
S'2023'
p571
sg91
F8
sg10
g571
sba(i__main__
response
(dp572
g86
S'A dog.'
sg7
S'2026'
p573
sg91
F6
sg10
g573
sba(i__main__
response
(dp574
g86
S'A cat.'
sg7
S'2029'
p575
sg91
F4
sg10
g575
sba(i__main__
response
(dp576
g86
S'A goldfish.'
sg7
S'2034'
p577
sg91
F2
sg10
g577
sba(i__main__
response
(dp578
g86
S'A dolphin.'
sg7
S'2037'
p579
sg91
F0
sg10
g579
sbasg10
g565
sg94
g47
sbsS'1988'
p580
(i__main__
question
(dp581
g86
S"What's your favourite colour?"
sg7
g580
sg87
(lp582
(i__main__
response
(dp583
g86
S"<font color='red'>Red.</font>"
sg7
S'1989'
p584
sg91
F10
sg10
g584
sba(i__main__
response
(dp585
g86
S"<font color='orange'>Orange.</font>"
sg7
S'1990'
p586
sg91
F9
sg10
g586
sba(i__main__
response
(dp587
g86
S"<font color='yellow'>Yellow.</font>"
sg7
S'1993'
p588
sg91
F8
sg10
g588
sba(i__main__
response
(dp589
g86
S"<font color='green'>Green.</font>"
sg7
S'1996'
p590
sg91
F7
sg10
g590
sba(i__main__
response
(dp591
g86
S"<font color='blue'>Blue.</font>"
sg7
S'1999'
p592
sg91
F6
sg10
g592
sba(i__main__
response
(dp593
g86
S"<font color='purple'>Purple.</font>"
sg7
S'2002'
p594
sg91
F5
sg10
g594
sba(i__main__
response
(dp595
g86
S"<font color='brown'>Brown.</font>"
sg7
S'2005'
p596
sg91
F4
sg10
g596
sba(i__main__
response
(dp597
g86
S"<font color='black'>Black.</font>"
sg7
S'2008'
p598
sg91
F3
sg10
g598
sba(i__main__
response
(dp599
g86
S"<font color='gray'>Grey.</font>"
sg7
S'2011'
p600
sg91
F2
sg10
g600
sba(i__main__
response
(dp601
g86
S"<font color='silver'>White.</font>"
sg7
S'2014'
p602
sg91
F1
sg10
g602
sbasg10
g580
sg94
g29
sbssg10
g540
sg132
S''
sg7
g540
sg133
S'Hey there! Just answer the questions to the left.'
sg134
(dp603
S'2089'
p604
(i__main__
result
(dp605
g138
(i__main__
score
(dp606
g15
(dp607
g543
(lp608
I1
aF2
asg558
(lp609
I1
aF1
asg565
(lp610
I1
aF0
asg580
(lp611
I1
aF10
assbsg147
S'Each book is a whole world. You can meet new people, go places, and make believe. Think about a book that you liked. Then go to the library and ask people for books like it.'
sg10
g604
sg148
S'blue'
p612
sg7
g604
sg149
S'Read.'
sbsS'2125'
p613
(i__main__
result
(dp614
g138
(i__main__
score
(dp615
g15
(dp616
g543
(lp617
I1
aF6
asg558
(lp618
I1
aF10
asg565
(lp619
I1
aF6
asg580
(lp620
I1
aF3
assbsg147
S'A stick.'
sg10
g613
sg148
S'brown'
p621
sg7
g613
sg149
S"What's brown and sticky?"
sbsS'2731'
p622
(i__main__
result
(dp623
g138
(i__main__
score
(dp624
g15
(dp625
g543
(lp626
I1
aF0
asg558
(lp627
I1
aF1
asg565
(lp628
I1
aF4
asg580
(lp629
I1
aF1
assbsg147
S'God made you. He made you to be like him, so he could love you and so you could love others. You are important to him.'
sg10
g622
sg148
S'#ff7597'
sg7
g622
sg149
S'God loves you.'
sbsS'2128'
p630
(i__main__
result
(dp631
g138
(i__main__
score
(dp632
g15
(dp633
g543
(lp634
I1
aF8
asg558
(lp635
I1
aF1
asg565
(lp636
I1
aF10
asg580
(lp637
I1
aF7
assbsg147
S"Sometimes if you use your body, it's easier to think. Some people jump or hum to help them remember things. I take walks when I need to figure something out."
sg10
g630
sg148
S'purple'
p638
sg7
g630
sg149
S'Thinking with your body.'
sbsS'2103'
p639
(i__main__
result
(dp640
g138
(i__main__
score
(dp641
g15
(dp642
g543
(lp643
I1
aF2
asg558
(lp644
I1
aF1
asg565
(lp645
I1
aF0
asg580
(lp646
I1
aF6
assbsg147
S'Can you paint? Can you draw? What have you seen that would make a good picture? What would your car look like if it had flowers growing off the roof? What would make a funny picture? Can you make music?'
sg10
g639
sg148
S'green'
p647
sg7
g639
sg149
S'Are you an artist?'
sbsS'2143'
p648
(i__main__
result
(dp649
g138
(i__main__
score
(dp650
g15
(dp651
g543
(lp652
I1
aF2
asg558
(lp653
I1
aF10
asg565
(lp654
I1
aF0
asg580
(lp655
I1
aF5
assbsg147
S"Don't understand what grown-ups are saying? Sometimes it's hard. It's OK to ask questions."
sg10
g648
sg148
g180
sg7
g648
sg149
S'Ask questions.'
sbsS'2086'
p656
(i__main__
result
(dp657
g138
(i__main__
score
(dp658
g15
(dp659
g543
(lp660
I1
aF10
asg558
(lp661
I1
aF10
asg565
(lp662
I1
aF10
asg580
(lp663
I1
aF10
assbsg147
S'A trom-bone!'
sg10
g656
sg148
S'yellow'
p664
sg7
g656
sg149
S'What musical instrument does a dog play?'
sbsS'2098'
p665
(i__main__
result
(dp666
g138
(i__main__
score
(dp667
g15
(dp668
g543
(lp669
I1
aF6
asg558
(lp670
I1
aF1
asg565
(lp671
I1
aF10
asg580
(lp672
I1
aF10
assbsg147
S'What can you use to build things? There are Legos, books, empty boxes. Look around the house and see what you can use to build something. Or get out a sheet of paper and plan something to build.'
sg10
g665
sg148
S'red'
p673
sg7
g665
sg149
S'Build things.'
sbsS'2158'
p674
(i__main__
result
(dp675
g138
(i__main__
score
(dp676
g15
(dp677
g543
(lp678
I1
aF4
asg558
(lp679
I1
aF1
asg565
(lp680
I1
aF4
asg580
(lp681
I1
aF3
assbsg147
S"You want to grow up, and you should. There are a lot of cool things for grown-ups. But there are some pretty cool things to being a kid, too. You can:\r\n<ul><li>Eat ice cream.\r\n<li>Play for a long time without getting tired.\r\n<li>Learn things much faster than grown-ups can.\r\n<li>Grow.\r\n<li>Heal quickly when you get hurt. (It takes grown-ups a long time to heal.)\r\n<li>Spend lots of times building things. (A few grown-ups get to do that, but not many.)\r\n<li>Think about what you want to be when you grow up--a lot of grown-ups don't.</ul>"
sg10
g674
sg148
g275
sg7
g674
sg149
S'Being a kid is cool.'
sbssg539
S''
sbsS'1489'
p682
(i__main__
quiz
(dp683
g80
S'(On a more serious note, if you\'re looking for a job, <a href="http://www.powells.com/cgi-bin/partner?partner_id=24934&cgi=product&isbn=1580085415" target="_blank"><u>What Color is Your Parachute?</u></a> is a cut above other job hunting books. It tells you things that other books don\'t even think of!)'
sg20
S'Career Selector'
sS'choice_of_length'
p684
I1
sg10
g682
sg134
(dp685
S'1775'
p686
(i__main__
result
(dp687
g138
(i__main__
score
(dp688
g15
(dp689
S'1513'
p690
(lp691
I1
aF1
asS'1535'
p692
(lp693
I1
aF10
asS'1591'
p694
(lp695
I1
aF1
asS'1522'
p696
(lp697
I1
aF1
asS'1575'
p698
(lp699
I1
aF10
assbsg147
S"...Also known as 'Stay-at-Home Mom'. People wonder why you don't get a real job."
sg10
g686
sg148
S'#f4444d'
sg7
g686
sg149
S'Supervisor, Chauffeur, Mechanic, Custodian, Cook, Disciplinarian, Medic, Seamstress, Counselor, Organiser, Educator, Folklorist, Administrator, Herbalist...'
sbsS'1631'
p700
(i__main__
result
(dp701
g138
(i__main__
score
(dp702
g15
(dp703
g690
(lp704
I1
aF1
asg692
(lp705
I1
aF10
asg694
(lp706
I1
aF10
asg696
(lp707
I1
aF10
asg698
(lp708
I1
aF1
assbsg147
S"You are a computer programmer, but that's just your day job. Every spare moment is spent in the Society for Creative Anachronism, where you live, dress, work, breathe, and play as a fourteenth century duke. You are particularly interested in period accurate weapons, fencing techniques, and winemaking. 'Tis a pity the poor mundanes can't enter this fantasy world..."
sg10
g700
sg148
g191
sg7
g700
sg149
S'Quixotic Knight'
sbsS'1683'
p709
(i__main__
result
(dp710
g138
(i__main__
score
(dp711
g15
(dp712
g698
(lp713
I1
aF10
asg692
(lp714
I1
aF10
asg694
(lp715
I1
aF1
asg696
(lp716
I1
aF10
asg690
(lp717
I1
aF1
assbsg147
S"The most important of the liberal arts, psychology has given you a keen grasp of the human mind, is tremendously helpful in understanding people, in making connections, and in negotiating the give-and-take of a world of people. At night you speak with people, giving valuable advice to people who need it. (During the day you are a Customer Experience Specialist at Wal-Mart, but that'll change.)"
sg10
g709
sg148
S'#a5b4c5'
sg7
g709
sg149
S'Psychologist'
p718
sbsS'1800'
p719
(i__main__
result
(dp720
g138
(i__main__
score
(dp721
g15
(dp722
g690
(lp723
I1
aF10
asg692
(lp724
I1
aF1
asg694
(lp725
I1
aF10
asg696
(lp726
I1
aF10
asg698
(lp727
I1
aF10
assbsg147
S"You are a small, invisible creature with no purpose in life but to steal people's keys--<em>especially</em> if they're in a hurry and need to get somewhere important! At least that's your only purpose <em>now</em>. You try not to grin when you tell friends that you're taking computer classes at night..."
sg10
g719
sg148
S'#555ab0'
sg7
g719
sg149
S'Car Key Gnome'
sbsS'1600'
p728
(i__main__
result
(dp729
g138
(i__main__
score
(dp730
g15
(dp731
g690
(lp732
I1
aF10
asg692
(lp733
I1
aF1
asg694
(lp734
I1
aF10
asg696
(lp735
I1
aF1
asg698
(lp736
I1
aF1
assbsg147
S"You and a partner will go on-site to replace customers' burnt-out light bulbs. When you arrive on site, you will find a light bulb, and your partner will pound it into the socket. (How long does this take? It depends on how many dead bulbs you've brought with you.)"
sg10
g728
sg148
S'#f0f842'
sg7
g728
sg149
S'Light Bulb Service Technician'
sbsS'1603'
p737
(i__main__
result
(dp738
g138
(i__main__
score
(dp739
g15
(dp740
g698
(lp741
I1
aF1
asg692
(lp742
I1
aF1
asg694
(lp743
I1
aF10
asg696
(lp744
I1
aF10
asg690
(lp745
I1
aF10
assbsg147
S"One of your most formative lessons in life came from watching <u>The Last Starfighter</u>, where you learned that spending a lot of time playing video games makes you irresistible to women. You have your own scripts to keep up-to-the-millisecond Linux on your computer. At work, you solve computer problems immediately, but find it necessary to spend the next three hours trying to explain the technical issues in exhaustive detail. You don't pick up the exasperation when someone says, 'Just tell me how to fix it!'"
sg10
g737
sg148
S'#8f7cd6'
sg7
g737
sg149
S'Computer Nerd'
sbsS'1702'
p746
(i__main__
result
(dp747
g138
(i__main__
score
(dp748
g15
(dp749
g690
(lp750
I1
aF10
asg692
(lp751
I1
aF1
asg694
(lp752
I1
aF10
asg696
(lp753
I1
aF10
asg698
(lp754
I1
aF10
assbsg147
S'You fill a very important role in society. You prepare food so people can eat, and you do it quickly and cheaply so that people who are pressed for time can grab something and go. This noble task entitles you to be the butt of jokes, and considered a second class human.'
sg10
g746
sg148
S'orange'
p755
sg7
g746
sg149
S'Burger Flipper'
sbsS'1610'
p756
(i__main__
result
(dp757
g138
(i__main__
score
(dp758
g15
(dp759
g690
(lp760
I1
aF1
asg692
(lp761
I1
aF1
asg694
(lp762
I1
aF1
asg696
(lp763
I1
aF1
asg698
(lp764
I1
aF10
assbsg147
S'<a href="http://math.boisestate.edu/gas/pirates/html/p13.html" target="_blank">You are the very model of the modern Micro-Manager!</a>\r\nYou\'ve cooking dishes vegetable, animal, and mineral.\r\nYou like to watch your subjects, and you read mails electronical.\r\nYour own and others too, with methods quite methodical.\r\nYou\'re almost un-acquainted, too, with matters mathematical.\r\nYou don\'t know, obviously, what is being talked about.\r\nYet of the facts and figures you\'re teeming with a lot \'o\' news.\r\nWith many cheerful facts about reducing all the budgetoose.\r\n\r\nYour head\'s full of quite a lot of stuff--recreational mathematics, newspaper stories, bestsellers, reports on TV--and your employees should recognise that this wealth of knowledge puts you in a powerful position to correct every detail of how your narrow, specialised, claustrophobic employees think they should do their job. You don\'t understand why your subordinates think that one comic strip is so funny. (The pointy-haired guy is a good manager!)\r\n'
sg10
g756
sg148
S'#6ed3ce'
sg7
g756
sg149
S'Micro-Manager'
sbsS'1648'
p765
(i__main__
result
(dp766
g138
(i__main__
score
(dp767
g15
(dp768
g690
(lp769
I1
aF1
asg692
(lp770
I1
aF10
asg694
(lp771
I1
aF10
asg696
(lp772
I1
aF10
asg698
(lp773
I1
aF10
assbsg147
S"We are all travellers working on the same journey--or is it walking along different paths? Oh, well. Anyway, your particular path is especially difficult, because you are trying to do what pastors have always done--offer guidance anchored to what God has revealed--but you believe it's a fundamental violation of other people's consciences to even <em>suggest</em> that they should be anchored. We are all travellers, at any rate, and the important thing is to be on a journey."
sg10
g765
sg148
S'#4d9930'
sg7
g765
sg149
S'Non-Directive Pastor'
sbssg539
S''
sg133
S'Welcome to the Career Selector! Just fill in the quiz to the left, and look for suggestions about what you might do as a career path.\r\n\r\nAnd remember, this is just a guidance tool. There are no right or wrong answers, no better or worse. (Although I might suggest that <em>your</em> particular answers seem rather abnormal.)'
sg81
S''
sg82
(dp774
g692
(i__main__
question
(dp775
g86
S'Which do you like better, dogs or cats?'
sg7
g692
sg87
(lp776
(i__main__
response
(dp777
g86
S"Dogs. They're sooooo stupid, it's cute!"
sg7
S'1536'
p778
sg91
F10
sg10
g778
sba(i__main__
response
(dp779
g86
S'I love cats! They... um... uh... Never mind.'
sg7
S'1537'
p780
sg91
F1
sg10
g780
sbasg10
g692
sg94
g68
sbsg694
(i__main__
question
(dp781
g86
S'Do you like using the web?'
sg7
g694
sg87
(lp782
(i__main__
response
(dp783
g86
S"No. Like, dude, it don't change near as fast as it should."
sg7
S'1592'
p784
sg91
F10
sg10
g784
sba(i__main__
response
(dp785
g86
S"Let's not talk about that. Why couldn't people just let me stick with MS-DOS?"
sg7
S'1593'
p786
sg91
F1
sg10
g786
sbasg10
g694
sg94
g39
sbsg690
(i__main__
question
(dp787
g86
S'What would you be more likely to do?'
sg7
g690
sg87
(lp788
(i__main__
response
(dp789
g86
S'Try to double a recipe by doubling all the ingredients and doubling the time and temperature.'
sg7
S'1514'
p790
sg91
F10
sg10
g790
sba(i__main__
response
(dp791
g86
S'Pour water on a computer to clean up a coffee spill.'
sg7
S'1515'
p792
sg91
F1
sg10
g792
sbasg10
g690
sg94
g47
sbsg698
(i__main__
question
(dp793
g86
S'At a party, which would you rather do?'
sg7
g698
sg87
(lp794
(i__main__
response
(dp795
g86
S"Buzz around and annoy everyone who's trying to have a stable conversation."
sg7
S'1576'
p796
sg91
F10
sg10
g796
sba(i__main__
response
(dp797
g86
S'Stand in the corner wishing you were surfing the web.'
sg7
S'1577'
p798
sg91
F1
sg10
g798
sbasg10
g698
sg94
g73
sbsg696
(i__main__
question
(dp799
g86
S'What would you be more likely to do to solve a problem?'
sg7
g696
sg87
(lp800
(i__main__
response
(dp801
g86
S'Spend so much time thinking you never get around to solving the problem.'
sg7
S'1523'
p802
sg91
F10
sg10
g802
sba(i__main__
response
(dp803
g86
S"Get to work immediately, and spend three hours working, before you realise you're barking up the wrong tree."
sg7
S'1524'
p804
sg91
F1
sg10
g804
sbasg10
g696
sg94
g29
sbssg132
S''
sg7
g682
sbsS'2694'
p805
(i__main__
quiz
(dp806
g20
S'Wonders of the Web'
sg7
g805
sg134
(dsg82
(dsg10
g805
sbsS'1818'
p807
(i__main__
quiz
(dp808
g10
g807
sg7
g807
sg134
(dp809
S'1948'
p810
(i__main__
result
(dp811
g138
(i__main__
score
(dp812
g15
(dp813
S'1832'
p814
(lp815
I1
aF1
asS'1825'
p816
(lp817
I1
aF10
asS'1853'
p818
(lp819
I1
aF1
asS'1837'
p820
(lp821
I1
aF10
asS'1846'
p822
(lp823
I1
aF1
assbsg147
S'Call someone and say hello. If you both live near each other, surprise the other person with a knock on the door. Have a good talk.'
sg10
g810
sg148
S'#86e45e'
sg7
g810
sg149
S'Call a friend.'
sbsS'1942'
p824
(i__main__
result
(dp825
g138
(i__main__
score
(dp826
g15
(dp827
g814
(lp828
I1
aF10
asg816
(lp829
I1
aF1
asg818
(lp830
I1
aF10
asg820
(lp831
I1
aF1
asg822
(lp832
I1
aF1
assbsg147
S'Start to play with <a href="http://jonathanhayward.com/MagicNotebook.cgi" target="_blank"><u>the Magic Notebook</u></a>. Think about what you could store there.'
sg10
g824
sg148
S'#6eb0d8'
sg7
g824
sg149
S'The Magic Notebook'
sbsS'1967'
p833
(i__main__
result
(dp834
g138
(i__main__
score
(dp835
g15
(dp836
g814
(lp837
I1
aF1
asg816
(lp838
I1
aF1
asg818
(lp839
I1
aF1
asg820
(lp840
I1
aF10
asg822
(lp841
I1
aF10
assbsg147
S'You could listen to some music.'
sg10
g833
sg148
S'#d4a491'
sg7
g833
sg149
S'Listen to music.'
sbsS'1945'
p842
(i__main__
result
(dp843
g138
(i__main__
score
(dp844
g15
(dp845
g814
(lp846
I1
aF1
asg816
(lp847
I1
aF1
asg818
(lp848
I1
aF1
asg820
(lp849
I1
aF10
asg822
(lp850
I1
aF10
assbsg147
S'Clean your room. Organise your closet. You can sift through things in your room, or memories, or thoughts that you are sorting out. Just go through things and put each of them in their places.'
sg10
g842
sg148
S'#8e6cf5'
sg7
g842
sg149
S'Sift through things.'
sbsS'1919'
p851
(i__main__
result
(dp852
g138
(i__main__
score
(dp853
g15
(dp854
g814
(lp855
I1
aF1
asg816
(lp856
I1
aF1
asg818
(lp857
I1
aF1
asg820
(lp858
I1
aF10
asg822
(lp859
I1
aF1
assbsg147
S'Read an online comic like <a href="http://www.calvinandhobbes.com" target="_blank"><u>Calvin and Hobbes</u></a>. Or rummage through your bookshelf. Or read <a href="http://www.powells.com/cgi-bin/partner?partner_id=24934&cgi=product&isbn=0060281375" target="_blank"><u>The Chronicles of Narnia</u></a>.'
sg10
g851
sg148
S'#ff266d'
sg7
g851
sg149
S'Read.'
sbsS'1894'
p860
(i__main__
result
(dp861
g138
(i__main__
score
(dp862
g15
(dp863
g814
(lp864
I1
aF1
asg816
(lp865
I1
aF1
asg818
(lp866
I1
aF10
asg820
(lp867
I1
aF1
asg822
(lp868
I1
aF1
assbsg147
S'Find a broken appliance. Or <u><a href="http://www.python.org" target="_blank"><font color="#ffffff">a programming language</font></a></u>. Or a child\'s toy. And play with it. Tinker. See if you can find a way to put things together that would do something interesting.'
sg10
g860
sg148
S'#b942f4'
sg7
g860
sg149
S'Tinker.'
sbsS'2181'
p869
(i__main__
result
(dp870
g138
(i__main__
score
(dp871
g15
(dp872
g814
(lp873
I1
aF1
asg816
(lp874
I1
aF1
asg818
(lp875
I1
aF1
asg820
(lp876
I1
aF1
asg822
(lp877
I1
aF1
assbsg147
S'Sit and think about things you can create, and create something.'
sg10
g869
sg148
S'ivory'
p878
sg7
g869
sg149
S'Create!'
sbsS'1937'
p879
(i__main__
result
(dp880
g138
(i__main__
score
(dp881
g15
(dp882
g814
(lp883
I1
aF1
asg816
(lp884
I1
aF1
asg818
(lp885
I1
aF1
asg820
(lp886
I1
aF10
asg822
(lp887
I1
aF10
assbsg147
S"You could pray over people close to you, or problems in your life, or your hopes, or countries, or other things as well. You could make up a prayer, or read prayers written by saints. There's never a wrong time to pray."
sg10
g879
sg148
S'#8dd346'
sg7
g879
sg149
S'Pray.'
sbsS'1871'
p888
(i__main__
result
(dp889
g138
(i__main__
score
(dp890
g15
(dp891
g814
(lp892
I1
aF1
asg816
(lp893
I1
aF1
asg818
(lp894
I1
aF10
asg820
(lp895
I1
aF10
asg822
(lp896
I1
aF1
assbsg147
S'Think about how you think. Think about how you do things. Think about how you talk with people. Sift through memories. What can you learn?'
sg10
g888
sg148
S'#e06060'
sg7
g888
sg149
S'Think about...'
sbsS'1928'
p897
(i__main__
result
(dp898
g138
(i__main__
score
(dp899
g15
(dp900
g814
(lp901
I1
aF10
asg816
(lp902
I1
aF1
asg818
(lp903
I1
aF10
asg820
(lp904
I1
aF10
asg822
(lp905
I1
aF1
assbsg147
S"Think about what's been happening in your life lately. Is there something you could write about? Is there a friend or relative you've not written in a long time? Is there an idea you want to flesh out?"
sg10
g897
sg148
S'#9674ff'
sg7
g897
sg149
S'Write!'
sbsS'1951'
p906
(i__main__
result
(dp907
g138
(i__main__
score
(dp908
g15
(dp909
g814
(lp910
I1
aF10
asg816
(lp911
I1
aF1
asg818
(lp912
I1
aF10
asg820
(lp913
I1
aF1
asg822
(lp914
I1
aF1
assbsg147
S'Go on a walk. Get some fresh air.'
sg10
g906
sg148
g191
sg7
g906
sg149
S'Take a walk.'
sbsS'1958'
p915
(i__main__
result
(dp916
g138
(i__main__
score
(dp917
g15
(dp918
g814
(lp919
I1
aF1
asg816
(lp920
I1
aF10
asg818
(lp921
I1
aF1
asg820
(lp922
I1
aF10
asg822
(lp923
I1
aF1
assbsg147
S"E-mail someone you haven't talked with in a while. Or someone you have. Just write an e-mail."
sg10
g915
sg148
S'#9460fc'
sg7
g915
sg149
S'E-mail someone.'
sbsS'1868'
p924
(i__main__
result
(dp925
g138
(i__main__
score
(dp926
g15
(dp927
g814
(lp928
I1
aF10
asg816
(lp929
I1
aF1
asg818
(lp930
I1
aF1
asg820
(lp931
I1
aF10
asg822
(lp932
I1
aF1
assbsg147
S'Imagine something. Imagine yourself as a character in a story, perhaps, or think about a place to visit, or imagine different ideas about something you might do..'
sg10
g924
sg148
S'#8888ff'
sg7
g924
sg149
S'Imagine'
p933
sbssg82
(dp934
g816
(i__main__
question
(dp935
g86
S'Which appeals to you more?'
sg7
g816
sg87
(lp936
(i__main__
response
(dp937
g86
S'Talking with someone new.'
sg7
S'1826'
p938
sg91
F10
sg10
g938
sba(i__main__
response
(dp939
g86
S'Sitting and thinking about something.'
sg7
S'1827'
p940
sg91
F1
sg10
g940
sbasg10
g816
sg94
g36
sbsg814
(i__main__
question
(dp941
g86
S'How are you feeling?'
sg7
g814
sg87
(lp942
(i__main__
response
(dp943
g86
S'I feel great!'
sg7
S'1833'
p944
sg91
F10
sg10
g944
sba(i__main__
response
(dp945
g86
S"I don't feel so good."
sg7
S'1834'
p946
sg91
F1
sg10
g946
sbasg10
g814
sg94
g25
sbsg818
(i__main__
question
(dp947
g86
S'Would you rather tinker with something, or work in a garden?'
sg7
g818
sg87
(lp948
(i__main__
response
(dp949
g86
S'Tinker.'
sg7
S'1854'
p950
sg91
F10
sg10
g950
sba(i__main__
response
(dp951
g86
S'Garden.'
sg7
S'1855'
p952
sg91
F1
sg10
g952
sbasg10
g818
sg94
g47
sbsg820
(i__main__
question
(dp953
g86
S'Would you rather build something or read?'
sg7
g820
sg87
(lp954
(i__main__
response
(dp955
g86
S'Read.'
sg7
S'1838'
p956
sg91
F10
sg10
g956
sba(i__main__
response
(dp957
g86
S'Build something.'
sg7
S'1839'
p958
sg91
F1
sg10
g958
sbasg10
g820
sg94
g68
sbsg822
(i__main__
question
(dp959
g86
S'Would you rather solve a puzzle or watch television?'
sg7
g822
sg87
(lp960
(i__main__
response
(dp961
g86
S'Watch something on television.'
sg7
S'1847'
p962
sg91
F10
sg10
g962
sba(i__main__
response
(dp963
g86
S'Solve a puzzle.'
sg7
S'1848'
p964
sg91
F1
sg10
g964
sbasg10
g822
sg94
g29
sbssg20
S'Jewel of an Activity'
sbsS'1809'
p965
(i__main__
quiz
(dp966
g10
g965
sg7
g965
sg134
(dp967
S'2860'
p968
(i__main__
result
(dp969
g138
(i__main__
score
(dp970
g15
(dp971
S'2756'
p972
(lp973
I1
aF5
asS'2761'
p974
(lp975
I1
aF0
asS'2736'
p976
(lp977
I1
aF4
assbsg147
S"God is never tame. Meeting him is like drinking from a Martian stream: good in a way you'd never expect."
sg10
g968
sg148
S'#51b7ff'
sg7
g968
sg149
S'<a href="http://www.powells.com/cgi-bin/partner?partner_id=24934&cgi=product&isbn=0805499547" target="_blank">Experiencing God</a>, by Henry Blackaby.'
sbsS'2903'
p978
(i__main__
result
(dp979
g138
(i__main__
score
(dp980
g15
(dp981
g972
(lp982
I1
aF1
asg974
(lp983
I1
aF6
asg976
(lp984
I1
aF1
assbsg147
S"Today, this title sounds positively Machiavellian. <em>That's a false impression.</em> The book is about how to interact well with other people and show them that you care. (I like to be with people who are trying to apply the book's principles.)"
sg10
g978
sg148
S'#b5f1dd'
sg7
g978
sg149
S'<a href="http://www.powells.com/cgi-bin/partner?partner_id=24934&cgi=product&isbn=0671027034" target="_blank">How to Win Friends and Influence People</a>, by Dale Carnegie.'
sbsS'2900'
p985
(i__main__
result
(dp986
g138
(i__main__
score
(dp987
g15
(dp988
g972
(lp989
I1
aF5
asg974
(lp990
I1
aF4
asg976
(lp991
I1
aF1
assbsg147
S"On Amazon's reviews, there are several people who say that this book made sense of a lot of things that didn't make sense before. It has its flaws--it's simplistic, and overly Evangelical--but the book provides a very good roadmap to begin with."
sg10
g985
sg148
S'#d1b784'
sg7
g985
sg149
S'<a href="http://www.powells.com/cgi-bin/partner?partner_id=24934&cgi=product&isbn=0891072926" target="_blank">How Should We Then Live: The Rise and Decline of Western Thought and Culture</a>, by Francis Schaeffer.'
sbsS'2906'
p992
(i__main__
result
(dp993
g138
(i__main__
score
(dp994
g15
(dp995
g972
(lp996
I1
aF5
asg974
(lp997
I1
aF8
asg976
(lp998
I1
aF4
assbsg147
S"The Bible was written where people knew how to pray, how to be in community and solitude, how to fast--indeed all kinds of spiritual disciplines that are not understood today, not a part of life. So it provides only brief instructions. Foster tries to explain what of this path of joy we need to learn today. It's well worth reading."
sg10
g992
sg148
g317
sg7
g992
sg149
S'<a href="http://www.powells.com/cgi-bin/partner?partner_id=24934&cgi=product&isbn=0060628391" target="_blank">In Celebration of Discipline</a>, by Richard Foster.'
sbsS'2963'
p999
(i__main__
result
(dp1000
g138
(i__main__
score
(dp1001
g15
(dp1002
g972
(lp1003
I1
aF5
asg974
(lp1004
I1
aF0
asg976
(lp1005
I1
aF1
assbsg147
S"Am I a technological determinist like Postman? No, only because I believe we have a choice about how to interact with technology--even if very few people even ask the questions that should be asked. This book helped me see what questions could be asked--and what happens if we don't ask them."
sg10
g999
sg148
g275
sg7
g999
sg149
S'<a href="http://www.powells.com/cgi-bin/partner?partner_id=24934&cgi=product&isbn=0679745408" target="_blank">Technopoly: The Surrender of Culture to Technology</a>, by Neil Postman.'
sbsS'2867'
p1006
(i__main__
result
(dp1007
g138
(i__main__
score
(dp1008
g15
(dp1009
g972
(lp1010
I1
aF1
asg974
(lp1011
I1
aF4
asg976
(lp1012
I1
aF10
assbsg147
S"This is one of several good children's books George MacDonald wrote--books that have something for both adult and child."
sg10
g1006
sg148
S'#63bd6f'
sg7
g1006
sg149
S'<a href="http://www.powells.com/cgi-bin/partner?partner_id=24934&cgi=product&isbn=048640787x" target="_blank">The Princess and the Goblin</a>, by George MacDonald.'
sbsS'2847'
p1013
(i__main__
result
(dp1014
g138
(i__main__
score
(dp1015
g15
(dp1016
g972
(lp1017
I1
aF5
asg974
(lp1018
I1
aF16
asg976
(lp1019
I1
aF1
assbsg147
S"This engaging book talks about how psychology applies to computer programming. It's most useful to programmers, but may be interesting if you seek to understand people and would like to understand a bit of programming."
sg10
g1013
sg148
S'#6ec141'
sg7
g1013
sg149
S'<a href="http://www.powells.com/cgi-bin/partner?partner_id=24934&cgi=product&isbn=1556154844" target="_blank">Code Complete: A Practical Handbook of Software Construction</a>, by Steve McConnell'
sbsS'2909'
p1020
(i__main__
result
(dp1021
g138
(i__main__
score
(dp1022
g15
(dp1023
g972
(lp1024
I1
aF1
asg974
(lp1025
I1
aF10
asg976
(lp1026
I1
aF4
assbsg147
S'Very loosely speaking, this is the Sermon on the Mount applied to the practice of running a business. And it works!'
sg10
g1020
sg148
S'#d98cac'
sg7
g1020
sg149
S'<a href="http://www.powells.com/cgi-bin/partner?partner_id=24934&cgi=product&isbn=0385512465" target="_blank">Leadership Is an Art</a>, by Max DePree.'
sbsS'2968'
p1027
(i__main__
result
(dp1028
g138
(i__main__
score
(dp1029
g15
(dp1030
g972
(lp1031
I1
aF10
asg974
(lp1032
I1
aF4
asg976
(lp1033
I1
aF10
assbsg147
S"The dark conclusion to C.S. Lewis's space trilogy, this is the sort of book one doesn't like to begin with, and then one returns to and sees more."
sg10
g1027
sg148
S'#5c577b'
sg7
g1027
sg149
S'<a href="http://www.powells.com/cgi-bin/partner?partner_id=24934&cgi=product&isbn=0684823853" target="_blank">That Hideous Strength</a>, by C.S. Lewis.'
sbsS'2926'
p1034
(i__main__
result
(dp1035
g138
(i__main__
score
(dp1036
g15
(dp1037
g972
(lp1038
I1
aF5
asg974
(lp1039
I1
aF22
asg976
(lp1040
I1
aF10
assbsg147
S'This is the first fantasy novel in the English language, and gave me the idea to write <a href="http://JonathansCorner.com/writings/dream/" target="_blank"><u>A Dream of Light</u></a>.'
sg10
g1034
sg148
S'#97a4de'
sg7
g1034
sg149
S'<a href="http://www.powells.com/cgi-bin/partner?partner_id=24934&cgi=product&isbn=0802860605" target="_blank">Phantastes</a>, by George MacDonald.'
sbsS'2949'
p1041
(i__main__
result
(dp1042
g138
(i__main__
score
(dp1043
g15
(dp1044
g972
(lp1045
I1
aF1
asg974
(lp1046
I1
aF14
asg976
(lp1047
I1
aF4
assbsg147
S'This book is popular because it presents something deep in an accessible way.'
sg10
g1041
sg148
S'#d4b66e'
sg7
g1041
sg149
S'<a href="http://www.powells.com/cgi-bin/partner?partner_id=24934&cgi=product&isbn=0671663984" target="_blank">Seven Habits of Highly Effective People</a>, by Stephen Covey.'
sbsS'2946'
p1048
(i__main__
result
(dp1049
g138
(i__main__
score
(dp1050
g15
(dp1051
g972
(lp1052
I1
aF10
asg974
(lp1053
I1
aF12
asg976
(lp1054
I1
aF1
assbsg147
S"The scandal of the Evangelical mind, Prof. Noll writes, is that there's not much of an Evangelical mind. This is not just a local problem; I am interested in the way in which learning and spirituality are united in Pseudo-Dionysius and Maximus Confessor, and have split apart in the centuries after, and refuse to be put together. This book sheds insight in what form that problem takes today."
sg10
g1048
sg148
S'#5385b2'
sg7
g1048
sg149
S'<a href="http://www.powells.com/cgi-bin/partner?partner_id=24934&cgi=product&isbn=0802841805" target="_blank">The Scandal of the Evangelical Mind</a>, by Mark Noll.'
sbsS'2827'
p1055
(i__main__
result
(dp1056
g138
(i__main__
score
(dp1057
g15
(dp1058
g972
(lp1059
I1
aF5
asg974
(lp1060
I1
aF0
asg976
(lp1061
I1
aF1
assbsg147
S'This book looks at a deep level at what track society is heading to, and what exactly its problems are.'
sg10
g1055
sg148
S'#e7b48e'
sg7
g1055
sg149
S'<a href="http://www.powells.com/cgi-bin/partner?partner_id=24934&cgi=product&isbn=0060652942" target="_blank">The Abolition of Man</a>, by C.S. Lewis.'
sbsS'2943'
p1062
(i__main__
result
(dp1063
g138
(i__main__
score
(dp1064
g15
(dp1065
g972
(lp1066
I1
aF1
asg974
(lp1067
I1
aF10
asg976
(lp1068
I1
aF4
assbsg147
S"The ideas contained in this book are not perfect; as a theologian I could make several critiques. What I cannot criticise is the way that Heaven soaks through its pages. There's a real spark of life in this book."
sg10
g1062
sg148
S'#b5de9e'
sg7
g1062
sg149
S'<a href="http://www.powells.com/cgi-bin/partner?partner_id=24934&cgi=product&isbn=0785273425" target="_blank">The Sacred Romance</a>, by Brent Curtis and John Eldredge.'
sbsS'2960'
p1069
(i__main__
result
(dp1070
g138
(i__main__
score
(dp1071
g15
(dp1072
g972
(lp1073
I1
aF1
asg974
(lp1074
I1
aF22
asg976
(lp1075
I1
aF10
assbsg147
S"When I was a freshman in college, a young woman loaned this book to me. I didn't want to read it. Then I read it, and have come back to it again and again."
sg10
g1069
sg148
S'#6d4cea'
sg7
g1069
sg149
S'<a href="http://www.powells.com/cgi-bin/partner?partner_id=24934&cgi=product&isbn=0824500857" target="_blank">Tales of a Magic Monastery</a> by Theophane the Monk.'
sbsS'2989'
p1076
(i__main__
result
(dp1077
g138
(i__main__
score
(dp1078
g15
(dp1079
g972
(lp1080
I1
aF10
asg974
(lp1081
I1
aF22
asg976
(lp1082
I1
aF4
assbsg147
S'I have said, \'The King James Version is a wonderful monument of Elizabethan English which should respectfully be permitted to rest in peace.\' So why am I linking to it?\r\n\r\nI\'ve begun to study theology, and I\'ve come to see truth in the quote, \'The problem with the King James Version is its shaky grasp of Hebrew. The problem with all modern versions is their increasingly shaky grasp of English.\' I think it would be best to read <a href="http://www.biblegateway.com" target="_blank">a modern version</a> alongside the King James. But the Bible is well worth reading in <em>any</em> major translation.'
sg10
g1076
sg148
S'#9b6648'
sg7
g1076
sg149
S'<a href="http://www.powells.com/cgi-bin/partner?partner_id=24934&cgi=product&isbn=0785201955" target="_blank">The Holy Bible</a>, by God.'
sbsS'2957'
p1083
(i__main__
result
(dp1084
g138
(i__main__
score
(dp1085
g15
(dp1086
g972
(lp1087
I1
aF10
asg974
(lp1088
I1
aF18
asg976
(lp1089
I1
aF10
assbsg147
S'What can I say about this book?\r\n\r\nFirst of all, it has problems. It tries to manipulate away the reader\'s chastity, and it\'s anti-Christian.\r\n\r\nSecond of all, a sharp Christian reader will see the book\'s profound dependence on the Gospel even as it rebels against it. (The book sheds quite an interesting light on Jesus as the original \'stranger in a strange land\'.)\r\n\r\nThird, I identify with the protagonist, and used it as a template for my <a href="http://JonathansCorner.com/writings/firestorm/" target="_blank">Firestorm 2034</a>. (Although what I wrote is much shorter.) The book has left an imprint on me.'
sg10
g1083
sg148
S'#9d755c'
sg7
g1083
sg149
S'<a href="" target="_blank">Stranger in a Strange Land</a>, by Robert Heinlein.'
sbsS'2887'
p1090
(i__main__
result
(dp1091
g138
(i__main__
score
(dp1092
g15
(dp1093
g972
(lp1094
I1
aF5
asg974
(lp1095
I1
aF18
asg976
(lp1096
I1
aF4
assbsg147
S'In trying to be a practical help in guiding the gifted child, this book explains a lot about giftedness. I found that I gained a number of insights from reading it.'
sg10
g1090
sg148
S'#e38272'
sg7
g1090
sg149
S'<a href="http://www.powells.com/cgi-bin/partner?partner_id=24934&cgi=product&isbn=0910707006" target="_blank">Guiding the Gifted Child</a>, by James Webb et al.'
sbsS'2884'
p1097
(i__main__
result
(dp1098
g138
(i__main__
score
(dp1099
g15
(dp1100
g972
(lp1101
I1
aF5
asg974
(lp1102
I1
aF16
asg976
(lp1103
I1
aF10
assbsg147
S'Blake wrote of the marriage of Heaven and Hell. Lewis wrote of the divorce of a marriage that cannot be, of the two things that absolutely <em>cannot</em> be combined.'
sg10
g1097
sg148
S'#7bc7e2'
sg7
g1097
sg149
S'<a href="http://www.powells.com/cgi-bin/partner?partner_id=24934&cgi=product&isbn=0060652950" target="_blank">The Great Divorce</a>, by C.S. Lewis.'
sbsS'2923'
p1104
(i__main__
result
(dp1105
g138
(i__main__
score
(dp1106
g15
(dp1107
g972
(lp1108
I1
aF10
asg974
(lp1109
I1
aF18
asg976
(lp1110
I1
aF10
assbsg147
S'This book follows <u>Out of the Silent Planet</u> into a struggle on Venus. There is quite an insightful treatment of what it means to be a woman, and what it means to be a man.'
sg10
g1104
sg148
S'#cf8d51'
sg7
g1104
sg149
S'<a href="http://www.powells.com/cgi-bin/partner?partner_id=24934&cgi=product&isbn=0684823829" target="_blank">Perelandra</a>, by C.S. Lewis.'
sbsS'2980'
p1111
(i__main__
result
(dp1112
g138
(i__main__
score
(dp1113
g15
(dp1114
g972
(lp1115
I1
aF10
asg974
(lp1116
I1
aF10
asg976
(lp1117
I1
aF4
assbsg147
S'Pseudo-Dionysius was an anonymous monk who was profoundly influential in subsequent Christian theology, for good and for ill. He writes a theology that is a profound invitation to worship.'
sg10
g1111
sg148
S'#e8bb66'
sg7
g1111
sg149
S'<a href="http://www.powells.com/cgi-bin/partner?partner_id=24934&cgi=product&isbn=0809128381" target="_blank">Pseudo-Dionysius: The Complete Works</a>, by Pseudo-Dionysius.'
sbsS'2977'
p1118
(i__main__
result
(dp1119
g138
(i__main__
score
(dp1120
g15
(dp1121
g972
(lp1122
I1
aF10
asg974
(lp1123
I1
aF8
asg976
(lp1124
I1
aF1
assbsg147
S'Maximus Confessor is enigmatic and deep. His <u>Chapters on Knowledge</u>, for instance, are terse and fascinating. He provides a view of what Christianity was like when mysticism and rationality walked hand in hand, before the sundering we live in today.'
sg10
g1118
sg148
S'#ede8ca'
sg7
g1118
sg149
S'<a href="http://www.powells.com/cgi-bin/partner?partner_id=24934&cgi=product&isbn=0809126591" target="_blank">Maximus Confessor: Selected Writings</a> by Maximus Confessor.'
sbsS'2974'
p1125
(i__main__
result
(dp1126
g138
(i__main__
score
(dp1127
g15
(dp1128
g972
(lp1129
I1
aF5
asg974
(lp1130
I1
aF8
asg976
(lp1131
I1
aF10
assbsg147
S'<u>A Wind in the Door</u> was my favourite children\'s book for years. I identified with Charles Wallace and the concept of kything, a present communion, fascinated me. This book is part of the <a href="http://www.powells.com/cgi-bin/partner?partner_id=24934&cgi=product&isbn=0440360374" target="_blank">Time Quartet</a>.'
sg10
g1125
sg148
S'#c45b86'
sg7
g1125
sg149
S'<a href="http://www.powells.com/cgi-bin/partner?partner_id=24934&cgi=product&isbn=0440487617" target="_blank">A Wind in the Door</a>, by Madeleine l\'Engle.'
sbsS'2920'
p1132
(i__main__
result
(dp1133
g138
(i__main__
score
(dp1134
g15
(dp1135
g972
(lp1136
I1
aF10
asg974
(lp1137
I1
aF16
asg976
(lp1138
I1
aF10
assbsg147
S'This describes a journey from earth to Mars. Among other things, it is significant as the first science fiction book that had aliens which were not the villains.'
sg10
g1132
sg148
S'#63d247'
sg7
g1132
sg149
S'<a href="http://www.powells.com/cgi-bin/partner?partner_id=24934&cgi=product&isbn=0743234901" target="_blank">Out of the Silent Planet</a>, by C.S. Lewis.'
sbsS'2940'
p1139
(i__main__
result
(dp1140
g138
(i__main__
score
(dp1141
g15
(dp1142
g972
(lp1143
I1
aF1
asg974
(lp1144
I1
aF8
asg976
(lp1145
I1
aF4
assbsg147
S"This book describes the 'magic from another real world' in Francis of Assisi's sainthood."
sg10
g1139
sg148
S'#64bcea'
sg7
g1139
sg149
S'<a href="http://www.powells.com/cgi-bin/partner?partner_id=24934&cgi=product&isbn=0385029004" target="_blank">Saint Francis of Assisi</a>, by G.K. Chesterton.'
sbsS'2844'
p1146
(i__main__
result
(dp1147
g138
(i__main__
score
(dp1148
g15
(dp1149
g972
(lp1150
I1
aF1
asg974
(lp1151
I1
aF14
asg976
(lp1152
I1
aF10
assbsg147
S"My father read the Chronicles to my brother and I when we were little boys; then I read them as a child, and again as a man. There's something to return to in these books."
sg10
g1146
sg148
S'gold'
p1153
sg7
g1146
sg149
S'<a href="http://www.powells.com/cgi-bin/partner?partner_id=24934&cgi=product&isbn=0060281375" target="_blank">The Chronicles of Narnia</a>, by C.S. Lewis.'
sbsS'2873'
p1154
(i__main__
result
(dp1155
g138
(i__main__
score
(dp1156
g15
(dp1157
g972
(lp1158
I1
aF10
asg974
(lp1159
I1
aF8
asg976
(lp1160
I1
aF1
assbsg147
S"Don't ask, 'The author could only think of four?' The four he develops are enough, and they're developed in depth."
sg10
g1154
sg148
g878
sg7
g1154
sg149
S'<a href="http://www.powells.com/cgi-bin/partner?partner_id=24934&cgi=product&isbn=0688082742" target="_blank">Four Arguments for the Elimination of Television</a>, by Jerry Mander.'
sbsS'2912'
p1161
(i__main__
result
(dp1162
g138
(i__main__
score
(dp1163
g15
(dp1164
g972
(lp1165
I1
aF10
asg974
(lp1166
I1
aF12
asg976
(lp1167
I1
aF4
assbsg147
S'Written by an Orthodox bishop, this book both describes and embodies just what it means to say that the Orthodox Way is luminous, and what the Orthodox Way is.'
sg10
g1161
sg148
S'#90c2bb'
sg7
g1161
sg149
S'<a href="http://www.powells.com/cgi-bin/partner?partner_id=24934&cgi=product&isbn=0913836583" target="_blank">The Orthodox Way</a>, by Kallistos Ware.'
sbsS'2870'
p1168
(i__main__
result
(dp1169
g138
(i__main__
score
(dp1170
g15
(dp1171
g972
(lp1172
I1
aF5
asg974
(lp1173
I1
aF6
asg976
(lp1174
I1
aF4
assbsg147
S'This book, written by a doctor, explores the human body and by analogy the body of Christ, the Church.'
sg10
g1168
sg148
g191
sg7
g1168
sg149
S'<a href="http://www.powells.com/cgi-bin/partner?partner_id=24934&cgi=product&isbn=031035451x" target="_blank">Fearfully and Wonderfully Made</a>, by Paul Brand and Philip Yancey.'
sbsS'2876'
p1175
(i__main__
result
(dp1176
g138
(i__main__
score
(dp1177
g15
(dp1178
g972
(lp1179
I1
aF10
asg974
(lp1180
I1
aF10
asg976
(lp1181
I1
aF1
assbsg147
S'This was my favourite text when I was studying maths, and with more time and more doubt about cognitive science, I want to give this book a major role in a thesis that critiques the cognitive science movement.'
sg10
g1175
sg148
S'#d2daff'
sg7
g1175
sg149
S'<a href="http://www.powells.com/cgi-bin/partner?partner_id=24934&cgi=product&isbn=0262660865" target="_blank">Foundations of Cognitive Science</a>, ed. Michael I. Posner.'
sbsS'2917'
p1182
(i__main__
result
(dp1183
g138
(i__main__
score
(dp1184
g15
(dp1185
g972
(lp1186
I1
aF1
asg974
(lp1187
I1
aF14
asg976
(lp1188
I1
aF4
assbsg147
S"When G.K. Chesterton wrote <u>Heretics</u>, someone said, 'If that is what a person shouldn't believe, what <em>should</em> a person believe?'\r\n\r\nChesterton paused in thought for a moment, and said, 'I am going to write a book on that.' This is that book."
sg10
g1182
sg148
S'#77acdb'
sg7
g1182
sg149
S'<a href="http://www.powells.com/cgi-bin/partner?partner_id=24934&cgi=product&isbn=0385015364" target="_blank">Orthodoxy: The Romance of Faith</a>, by G.K. Chesterton.'
sbsS'2850'
p1189
(i__main__
result
(dp1190
g138
(i__main__
score
(dp1191
g15
(dp1192
g972
(lp1193
I1
aF10
asg974
(lp1194
I1
aF18
asg976
(lp1195
I1
aF4
assbsg147
S"If you have a living faith, it makes a difference in how you live. Bonhoeffer was bothered by cheap grace, people saying that being a Christian doesn't matter, and spoke of the importance of costly grace."
sg10
g1189
sg148
S'#638bf5'
sg7
g1189
sg149
S'<a href="http://www.powells.com/cgi-bin/partner?partner_id=24934&cgi=product&isbn=0684815001" target="_blank">The Cost of Discipleship</a>, by Dietrich Bonhoeffer.'
sbsS'2879'
p1196
(i__main__
result
(dp1197
g138
(i__main__
score
(dp1198
g15
(dp1199
g972
(lp1200
I1
aF10
asg974
(lp1201
I1
aF12
asg976
(lp1202
I1
aF4
assbsg147
S'A wonderful waltz through mathematics and the more mathematical edge of the humanities.'
sg10
g1196
sg148
S'#c0b167'
sg7
g1196
sg149
S'<a href="http://www.powells.com/cgi-bin/partner?partner_id=24934&cgi=product&isbn=0465026567" target="_blank">G&ouml;del, Escher, Bach: An Eternal Golden Braid</a>, by Douglas Hofstadter.'
sbsS'2935'
p1203
(i__main__
result
(dp1204
g138
(i__main__
score
(dp1205
g15
(dp1206
g972
(lp1207
I1
aF5
asg974
(lp1208
I1
aF6
asg976
(lp1209
I1
aF4
assbsg147
S"This book is about the demise of academic theology. Oden does a good job of describing something that is painfully obvious to a Christian studying theology. It's one of those things that's so obvious, you have to ignore it to see anything else. Yet he manages to do this with a sense of hope and optimism."
sg10
g1203
sg148
S'#40cad9'
sg7
g1203
sg149
S'<a href="http://www.powells.com/cgi-bin/partner?partner_id=24934&cgi=product&isbn=0687020034" target="_blank">Requiem: A Lament in Three Movements</a>, by Thomas Oden.'
sbsS'2932'
p1210
(i__main__
result
(dp1211
g138
(i__main__
score
(dp1212
g15
(dp1213
g972
(lp1214
I1
aF5
asg974
(lp1215
I1
aF4
asg976
(lp1216
I1
aF1
assbsg147
S"Johnson helped me realise that Darwinism is not just science (although that's how it's presented): it's the cutting edge of the sword wielded by naturalism."
sg10
g1210
sg148
S'#5bb3b0'
sg7
g1210
sg149
S'<a href="http://www.powells.com/cgi-bin/partner?partner_id=24934&cgi=product&isbn=0830819290" target="_blank">Reason in the Balance: The Case Against Naturalism in Science, Law, and Education</a>, by Philip Johnson.'
sbsS'2838'
p1217
(i__main__
result
(dp1218
g138
(i__main__
score
(dp1219
g15
(dp1220
g972
(lp1221
I1
aF1
asg974
(lp1222
I1
aF8
asg976
(lp1223
I1
aF7
assbsg147
S"It's the story of a Christmas pageant gone terribly wrong. It's a classic because the Christmas pageant ends up going terribly <em>right</em>."
sg10
g1217
sg148
S'#ef4b43'
sg7
g1217
sg149
S'<a href="http://www.powells.com/cgi-bin/partner?partner_id=24934&cgi=product&isbn=0064402754" target="_blank">The Best Christmas Pageant Ever</a>, by Barbara Robinson.'
sbsS'2835'
p1224
(i__main__
result
(dp1225
g138
(i__main__
score
(dp1226
g15
(dp1227
g972
(lp1228
I1
aF5
asg974
(lp1229
I1
aF6
asg976
(lp1230
I1
aF4
assbsg147
S"A sharp and incisive critique about what effect television has on a culture: it's not just that the shows are stupid."
sg10
g1224
sg148
S'#84bb7a'
sg7
g1224
sg149
S'<a href="http://www.powells.com/cgi-bin/partner?partner_id=24934&cgi=product&isbn=0140094385" target="_blank">Amusing Ourselves to Death</a>, by Neil Postman.'
sbsS'2971'
p1231
(i__main__
result
(dp1232
g138
(i__main__
score
(dp1233
g15
(dp1234
g972
(lp1235
I1
aF1
asg974
(lp1236
I1
aF6
asg976
(lp1237
I1
aF4
assbsg147
S"Most job books say, 'Ok, here's how to sharpen your r&eacute;sum&eacute; and do well in an interview.' This book starts much further back; it told me things I wouldn't think to ask. I've read a number of job hunting books. There are things in this book I've not found anywhere else."
sg10
g1231
sg148
S'#f5af6b'
sg7
g1231
sg149
S'<a href="http://www.powells.com/cgi-bin/partner?partner_id=24934&cgi=product&isbn=1580085415" target="_blank">What Color is Your Parachute?</a>, by Richard Bolles.'
sbsS'2832'
p1238
(i__main__
result
(dp1239
g138
(i__main__
score
(dp1240
g15
(dp1241
g972
(lp1242
I1
aF5
asg974
(lp1243
I1
aF4
asg976
(lp1244
I1
aF4
assbsg147
S'As an artist, this resonated with me.'
sg10
g1238
sg148
S'#46e85f'
sg7
g1238
sg149
S'<a href="http://www.powells.com/cgi-bin/partner?partner_id=24934&cgi=product&isbn=0891073531" target="_blank">Addicted to Mediocrity: 20th Century Christians and the Arts</a>, by Franky Schaeffer.'
sbsS'2952'
p1245
(i__main__
result
(dp1246
g138
(i__main__
score
(dp1247
g15
(dp1248
g972
(lp1249
I1
aF10
asg974
(lp1250
I1
aF16
asg976
(lp1251
I1
aF1
assbsg147
S'Charles Taylor is considered one of the more important philosophers for sociologists to read. He views us as being like trees, having a layer for each age before us, and shows how the history of ideas contributes to us today. This is not an easy read, but worth it even if you disagree with his conclusions (as I do).'
sg10
g1245
sg148
S'#92cb7d'
sg7
g1245
sg149
S'<a href="http://www.powells.com/cgi-bin/partner?partner_id=24934&cgi=product&isbn=0674824261" target="_blank">Sources of the Self: The Making of Modern Identity</a>, by Charles Taylor.'
sbsS'2994'
p1252
(i__main__
result
(dp1253
g138
(i__main__
score
(dp1254
g15
(dp1255
g972
(lp1256
I1
aF10
asg974
(lp1257
I1
aF0
asg976
(lp1258
I1
aF1
assbsg147
S'This book, written by one of the great medievalists, gives a good glimpse into the medieval heart and mind--a nonfiction version of what I was trying to do with <a href="http://JonathansCorner.com/writings/firestorm/"><u>Firestorm 2034</u></a>.'
sg10
g1252
sg148
S'#c9a499'
sg7
g1252
sg149
S'<a href="http://www.powells.com/cgi-bin/partner?partner_id=24934&cgi=product&isbn=0521477352" target="_blank">The Discarded Image: An Introduction to Medieval and Renaissance Literature</a>, by C.S. Lewis.'
sbsS'2890'
p1259
(i__main__
result
(dp1260
g138
(i__main__
score
(dp1261
g15
(dp1262
g972
(lp1263
I1
aF10
asg974
(lp1264
I1
aF22
asg976
(lp1265
I1
aF4
assbsg147
S"This book says a lot about Heaven, and it doesn't just talk about Heaven. Heaven shines through. This is a good book for understanding Heaven, not only as a future life, but as something God invites us to live today."
sg10
g1259
sg148
S'#efda75'
sg7
g1259
sg149
S'<a href="http://www.powells.com/cgi-bin/partner?partner_id=24934&cgi=product&isbn=0898702283" target="_blank">Heaven: The Heart\'s Deepest Longing</a>, by Peter Kreeft.'
sbsS'2893'
p1266
(i__main__
result
(dp1267
g138
(i__main__
score
(dp1268
g15
(dp1269
g972
(lp1270
I1
aF1
asg974
(lp1271
I1
aF0
asg976
(lp1272
I1
aF4
assbsg147
S'This shows how some things that seem to make sense... make less sense than they seem to.'
sg10
g1266
sg148
S'#bc8484'
sg7
g1266
sg149
S'<a href="http://www.powells.com/cgi-bin/partner?partner_id=24934&cgi=product&isbn=http://www.powells.com/cgi-bin/partner?partner_id=24934&cgi=product&isbn=0898702283" target="_blank">Heretics</a>, by G.K. Chesterton.'
sbsS'2853'
p1273
(i__main__
result
(dp1274
g138
(i__main__
score
(dp1275
g15
(dp1276
g972
(lp1277
I1
aF5
asg974
(lp1278
I1
aF22
asg976
(lp1279
I1
aF1
assbsg147
S"This is the book that convinced me that saying 'God created the world--by evolution!' was scientifically unacceptable. I realised I'd been lied to about how successful a theory evolution was."
sg10
g1273
sg148
S'#646e61'
sg7
g1273
sg149
S'<a href="http://www.powells.com/cgi-bin/partner?partner_id=24934&cgi=product&isbn=0830813241" target="_blank">Darwin On Trial</a>, by Philip Johnson.'
sbsS'2841'
p1280
(i__main__
result
(dp1281
g138
(i__main__
score
(dp1282
g15
(dp1283
g972
(lp1284
I1
aF1
asg974
(lp1285
I1
aF12
asg976
(lp1286
I1
aF4
assbsg147
S'    When David Schwartz left university in 1972, he set up Rent-a-wreck\r\nas a joke.  Being a natural prankster, he acquired a fleet of beat-up\r\nshabby, wreckages waiting for the scrap heap in California.\r\n\r\n    He put on a cap and looked forward to watching people\'s faces as he\r\nconducted them round the choice of bumperless, dented junkmobiles.\r\n\r\n    To his lasting surprise there was an insatiable demand for them and\r\nhe now has 26 thriving branches all over America.  "People like driving\r\nround in the worst cars available," he said.  Of course they do.\r\n\r\n    "If a driver damages the side of a car and is honest enough to\r\nadmit it, I tell him, `Forget it\'.  If they bring a car back late we\r\noverlook it.  If they\'ve had a crash and it doesn\'t involve another vehicle\r\nwe might overlook that too."\r\n\r\n    "Where\'s the ashtray?" asked on Los Angeles wife, as she settled\r\ninto the ripped interior.  "Honey," said her husband, "the whole car\'s the\r\nash tray."\r\n'
sg10
g1280
sg148
S'#5794e5'
sg7
g1280
sg149
S'<a href="http://www.powells.com/cgi-bin/partner?partner_id=24934&cgi=product&isbn=071000317" target="_blank">The Book of Heroic Failures</a>, by Stephen Pile.'
sbsS'2929'
p1287
(i__main__
result
(dp1288
g138
(i__main__
score
(dp1289
g15
(dp1290
g972
(lp1291
I1
aF5
asg974
(lp1292
I1
aF0
asg976
(lp1293
I1
aF4
assbsg147
S"This book is a good book for understanding other people, and getting a glimpse of the diversity we have as humans. Sometimes it tries to be understanding when we need to be a little less understanding and a little more condemning. There are other flaws. It's still helpful in understanding other people."
sg10
g1287
sg148
S'#a89349'
sg7
g1287
sg149
S'<a href="http://www.powells.com/cgi-bin/partner?partner_id=24934&cgi=product&isbn=0960695400" target="_blank">Please Understand Me</a>, by David Kiersey.'
sbssg82
(dp1294
g972
(i__main__
question
(dp1295
g86
S'Would you rather have something easy to read, or be challenged?'
sg7
g972
sg87
(lp1296
(i__main__
response
(dp1297
g86
S'Something easy.'
sg7
S'2757'
p1298
sg91
F1
sg10
g1298
sba(i__main__
response
(dp1299
g86
S'Something in-between.'
sg7
S'2758'
p1300
sg91
F5
sg10
g1300
sba(i__main__
response
(dp1301
g86
S'Something challenging.'
sg7
S'2822'
p1302
sg91
F10
sg10
g1302
sbasg10
g972
sg94
g63
sbsg976
(i__main__
question
(dp1303
g86
S'What do you feel like reading?'
sg7
g976
sg87
(lp1304
(i__main__
response
(dp1305
g86
S'Something technical.'
sg7
S'2737'
p1306
sg91
F1
sg10
g1306
sba(i__main__
response
(dp1307
g86
S'Nonfiction that has a certain spark to it.'
sg7
S'2738'
p1308
sg91
F4
sg10
g1308
sba(i__main__
response
(dp1309
g86
S'Fiction.'
sg7
S'2741'
p1310
sg91
F7
sg10
g1310
sba(i__main__
response
(dp1311
g86
S'Fantasy.'
sg7
S'2744'
p1312
sg91
F10
sg10
g1312
sbasg10
g976
sg94
g68
sbsg974
(i__main__
question
(dp1313
g86
S'Pick a number, one to ten.'
sg7
g974
sg87
(lp1314
(i__main__
response
(dp1315
g86
S'One.'
sg7
S'2762'
p1316
sg91
F0
sg10
g1316
sba(i__main__
response
(dp1317
g86
S'Two.'
sg7
S'2763'
p1318
sg91
F4
sg10
g1318
sba(i__main__
response
(dp1319
g86
S'Three.'
sg7
S'2766'
p1320
sg91
F6
sg10
g1320
sba(i__main__
response
(dp1321
g86
S'Four.'
sg7
S'2769'
p1322
sg91
F8
sg10
g1322
sba(i__main__
response
(dp1323
g86
S'Five.'
sg7
S'2772'
p1324
sg91
F10
sg10
g1324
sba(i__main__
response
(dp1325
g86
S'Six.'
sg7
S'2775'
p1326
sg91
F12
sg10
g1326
sba(i__main__
response
(dp1327
g86
S'Seven.'
sg7
S'2778'
p1328
sg91
F14
sg10
g1328
sba(i__main__
response
(dp1329
g86
S'Eight.'
sg7
S'2781'
p1330
sg91
F16
sg10
g1330
sba(i__main__
response
(dp1331
g86
S'Nine.'
sg7
S'2784'
p1332
sg91
F18
sg10
g1332
sba(i__main__
response
(dp1333
g86
S'Ten.'
sg7
S'2787'
p1334
sg91
F22
sg10
g1334
sbasg10
g974
sg94
g22
sbssg20
S'World of Books'
sbssg7
g75
sS'sections'
p1335
(dp1336
sS'configuration'
p1337
(i__main__
configuration_class
p1338
(dp1339
S'sacrifice_memory_for_speed_level'
p1340
F0
sS'save_cache'
p1341
I1
sS'allow_advanced_search'
p1342
I1
sS'matches_per_page'
p1343
I10
sS'default_quiz'
p1344
g807
sS'frames'
p1345
(dsS'excerpt_radius'
p1346
I4
sS'page_header'
p1347
S'<html>\r\n    <head>\r\n        <title>@TITLE@</title>\r\n        <style>\r\n            <!--\r\n            a {text-decoration: none}\r\n            -->\r\n        </style>\r\n    </head>\r\n    @BODY_TAG@\r\n        <table border="0" width="100%">\r\n            <tr>\r\n                <td width="100%" height="15">\r\n                </td>\r\n            </tr>\r\n            <tr>\r\n                <td>\r\n                    <h1 id="title"\r\n                    style="text-align: center; margin-top: 0px">@TITLE@</h1>'
sS'show_all_quotes_by_default'
p1348
I1
sS'last_identifier'
p1349
I3360
sS'limit_results_shown'
p1350
I1
sS'authenticate'
p1351
I1
sg10
S'0'
sS'allow_choice_of_length'
p1352
I0
sS'title'
p1353
S'Quizmaster'
p1354
sS'welcome_page'
p1355
S'<blockquote>\r\n<p>Welcome to the "Jewel of an Activity" activity selector. Jewel of an\r\nActivity was written by Jonathan Hayward to help him find leisure activities\r\nafter work.</p>\r\n\r\n<p align="center"><strong><a href="http://JonathansCorner.com"\r\ntarget="_blank">Home Page</a>  <a\r\nhref="mailto:jonathan.hayward@pobox.com">Email</a></strong></p>\r\n</blockquote>'
sS'display_more_like_this'
p1356
I0
sS'maximum_results_to_show'
p1357
I3
sS'cache_duration'
p1358
I3600
sS'page_footer'
p1359
S'                </td>\r\n            </tr>\r\n        </table>\r\n    </body>\r\n</html>'
sg7
S'0'
sS'body_tag'
p1360
S'<body bgcolor="#ffffff">'
sbsS'subsections'
p1361
(dp1362
sb.