(i__main__
monolith_class
p1
(dp2
S'word_numberer'
p3
(i__main__
word_numberer_class
p4
(dp5
S'highest_index'
p6
I0
sS'identifier'
p7
S'152'
p8
sS'words'
p9
(dsS'html_name'
p10
g8
sbsS'cache'
p11
(i__main__
cache_class
p12
(dp13
S'hashes'
p14
(dsbsS'axes'
p15
(dp16
sg10
S'153'
p17
sS'quizzes'
p18
(dp19
sg7
g17
sS'sections'
p20
(dp21
sS'subsections'
p22
(dp23
sb.