(i__main__
monolith_class
p1
(dp2
S'word_numberer'
p3
(i__main__
word_numberer_class
p4
(dp5
S'highest_index'
p6
I0
sS'identifier'
p7
S'327'
p8
sS'words'
p9
(dsS'html_name'
p10
g8
sbsS'cache'
p11
(i__main__
cache_class
p12
(dp13
S'hashes'
p14
(dsbsS'axes'
p15
(dp16
S'362'
p17
(i__main__
axis
(dp18
g7
g17
sS'name'
p19
S'Axis 2'
sg10
g17
sbsS'359'
p20
(i__main__
axis
(dp21
g7
g20
sg19
S'Axis 1'
sg10
g20
sbssg10
S'328'
p22
sS'quizzes'
p23
(dp24
sg7
g22
sS'sections'
p25
(dp26
sS'configuration'
p27
(i__main__
configuration_class
p28
(dp29
S'sacrifice_memory_for_speed_level'
p30
F0
sS'authenticate'
p31
I0
sS'allow_advanced_search'
p32
I1
sg10
S'0'
sS'title'
p33
S'Jewel of an Activity'
sS'welcome_page'
p34
S'<blockquote>\r\n<p>Welcome to the "Jewel of an Activity" activity selector. Jewel of an\r\nActivity was written by Jonathan Hayward to help him find leisure activities\r\nafter work.</p>\r\n\r\n<p align="center"><strong><a href="http://JonathansCorner.com"\r\ntarget="_blank">Home Page</a>  <a\r\nhref="mailto:jonathan.hayward@pobox.com">Email</a></strong></p>\r\n</blockquote>\r\n'
sS'cache_duration'
p35
I3600
sS'excerpt_radius'
p36
I4
sS'display_more_like_this'
p37
I0
sS'last_identifier'
p38
I364
sS'page_header'
p39
S'<html>\r\n    <head>\r\n        <title>@TITLE@</title>\r\n        <style>\r\n            <!--\r\n            a { text-decoration: none }\r\n            -->\r\n        </style>\r\n    </head>\r\n    @BODY_TAG@\r\n        <table border="0" width="100%">\r\n            <tr>\r\n                <td width="100%" height="15">\r\n                </td>\r\n            </tr>\r\n            <tr>\r\n                <td>\r\n                    <h1 id="title"\r\n                    style="text-align: center; margin-top: 0px">@TITLE@</h1>\r\n'
sg7
S'0'
sS'save_cache'
p40
I1
sS'matches_per_page'
p41
I10
sS'frames'
p42
(dsS'page_footer'
p43
S'                </td>\r\n            </tr>\r\n        </table>\r\n    </body>\r\n</html>\r\n'
sS'show_all_quotes_by_default'
p44
I1
sS'body_tag'
p45
S'<body bgcolor="#ffffff" link="\\#7080e0" vlink="a870c0" alink="#c09090" text="#505050">'
sbsS'subsections'
p46
(dp47
sb.